c__builtin__
set
p0
((lp1
I746348100923555840
aI722230787936878592
aI23440043
aI750927032545148932
aI722209486505656321
aI21823499
aI12
aI13
aI129433615
aI143039515
aI17
aI18
aI72837696
aI20
aI21
aI108232726
aI119078936
aI15051439
aI6193182
aI14975009
aI19693602
aI1264287780
aI57671717
aI38
aI3809214505
aI14712874
aI14319659
aI21299246
aI47
aI104562738
aI2596989619
aI267616308
aI1630896181
aI36962358
aI3506231
aI41549880
aI25657401
aI786491
aI1966141
aI249888833
aI135856194
aI15302723
aI36143173
aI226891105
aI14286860
aI1048651
aI14221389
aI359039057
aI819284
aI160808974
aI16318551
aI89
aI17825884
aI94
aI14614623
aI18022416
aI6324322
aI710253070639370240
aI3460038759
aI199622761
aI107
aI12877932
aI438829074
aI16941166
aI18317423
aI5570672
aI59998323
aI390889590
aI819319
aI14614648
aI15106068
aI780991
aI6455422
aI2791997461
aI14718315
aI22
aI13140102
aI221806727
aI2592505992
aI1409161
aI17989771
aI196378767
aI14109267
aI688273
aI223379602
aI10748052
aI150
aI2621591
aI8552602
aI29381999
aI14549148
aI20676765
aI1605791
aI547061920
aI23368738
aI229376164
aI16950711
aI223248550
aI26542255
aI39813296
aI54815432
aI17301682
aI188468721
aI2978807989
aI14516406
aI16149193
aI117899448
aI187
aI183107774
aI20561952
aI16122052
aI16580806
aI25772065
aI19923144
aI15430768
aI344916170
aI16596095
aI9109712
aI23553200
aI133857490
aI786646
aI19169495
aI184910040
aI14155994
aI426115293
aI18514142
aI58032351
aI224
aI49774820
aI11388132
aI904954086
aI53543144
aI16673905
aI30059550
aI474185968
aI2604695795
aI128647412
aI246
aI195789048
aI2916601
aI321738111
aI14811388
aI18776317
aI18743550
aI35487999
aI15532288
aI257
aI259
aI5531932
aI14057736
aI18060136
aI14803267
aI2261261
aI160268559
aI43352336
aI93952855
aI35324179
aI956563734
aI14341508
aI15335709
aI18514207
aI216816284
aI291
aI292
aI293
aI294
aI15434024
aI753963
aI233996590
aI100434223
aI1270415664
aI208985186
aI155079054
aI398393655
aI42809339
aI19411426
aI4653371
aI9568572
aI14680381
aI1120601
aI89293119
aI2480079168
aI857473345
aI322
aI324
aI17531205
aI1010401
aI36438346
aI76606071
aI8847692
aI18547023
aI31686995
aI23298389
aI18776406
aI57
aI90865232
aI16089438
aI21736165
aI14128528
aI87261538
aI688483
aI6160742
aI14405111
aI7340392
aI22708585
aI414120739
aI14287212
aI155784594
aI232339541
aI14844272
aI14844273
aI5538162
aI114065779
aI18055540
aI128287094
aI16741221
aI380
aI71139712
aI786818
aI7280022
aI28017855
aI14451083
aI27623826
aI25362499
aI2577476334
aI819606
aI226591129
aI101816634
aI187629981
aI414
aI220496287
aI1012981
aI418
aI14685595
aI42172836
aI422
aI211583400
aI152502698
aI9929132
aI14582191
aI432
aI43123122
aI24215987
aI453170591
aI10718322
aI23429567
aI448
aI23331266
aI56263107
aI9667012
aI6877872
aI456
aI9273802
aI16286155
aI19399117
aI3051356622
aI67437007
aI23855568
aI77332945
aI19744014
aI109281748
aI533627349
aI16646614
aI1075961
aI16351704
aI153420249
aI125091919
aI66013
aI66224606
aI342458847
aI14189025
aI18645479
aI14090728
aI601883116
aI17269229
aI51184110
aI450331119
aI261751280
aI37585396
aI163457790
aI17990135
aI18022904
aI338985044
aI29360636
aI509
aI782598587125563392
aI10224132
aI267485701
aI20021770
aI70976011
aI179438092
aI14674690
aI519438862
aI528
aI28344849
aI19923474
aI24773139
aI14680596
aI106922518
aI4981271
aI3703321
aI1661862426
aI18350619
aI541
aI16613918
aI2009861
aI544
aI6351622
aI17629734
aI22381095
aI106463784
aI30736937
aI14058026
aI2611118635
aI17039916
aI1081901
aI127402542
aI15106607
aI49991849
aI30075656
aI1620771378
aI17170995
aI1173783096
aI24773177
aI9011772
aI573
aI85270262
aI21848986
aI126321222
aI17514593
aI129040968
aI2161994508
aI586
aI66123
aI44171852
aI14850314
aI15330061
aI50159269
aI2383872594
aI819797
aI3277401
aI607
aI23757410
aI18481766
aI28017255
aI28803689
aI13075052
aI3605101
aI492569198
aI14090863
aI15358651
aI148177521
aI19923571
aI17880510
aI2953937526
aI15554080
aI36602488
aI633
aI481598648
aI637
aI20451072
aI1087646485
aI355172993
aI1671811
aI21693060
aI645
aI710423561601568768
aI648
aI649
aI16908938
aI652
aI18481805
aI257098383
aI29262480
aI15499924
aI815096
aI54952598
aI18514583
aI5603992
aI319357593
aI24576667
aI23921310
aI46432930
aI63854022
aI6161062
aI47153833
aI2797568682
aI271909548
aI117113519
aI1212366200
aI3227837743
aI37690929
aI1660361
aI1904214715
aI271764517
aI15434432
aI14587339
aI14090948
aI156402374
aI39092935
aI19969078
aI12354252
aI14904098
aI56296143
aI7374972
aI722
aI33493
aI13337302
aI14101678
aI13561682
aI15041241
aI11666142
aI28607199
aI176685793
aI216892130
aI14221435
aI746310609252327424
aI14171622
aI15827690
aI747
aI30343918
aI15598320
aI15608616
aI755
aI131597045
aI7144182
aI760
aI761
aI200835834
aI765
aI12681982
aI3539711
aI769
aI19137282
aI15467267
aI787205
aI13234672
aI14325207
aI34499373
aI5931792
aI24712664
aI2148238098
aI52789379
aI16384788
aI412008580
aI83559196
aI20316957
aI2213348126
aI819999
aI193200930
aI83886883
aI33882916
aI271319174
aI9569062
aI1240466215
aI3096642344
aI61336370
aI93487919
aI22512433
aI15827765
aI18694281
aI9700152
aI52298553
aI106595132
aI3244861
aI89097023
aI2493732320
aI22446915
aI14329287
aI184650211
aI316212045
aI16116536
aI305267538
aI36143955
aI272794452
aI13304662
aI820055
aI59638618
aI14254939
aI861
aI211992417
aI16188256
aI14320484
aI18547559
aI30712067
aI874
aI120980332
aI14101309
aI23528305
aI882
aI885
aI374178682
aI754556
aI9896832
aI1222968193
aI23462787
aI83428228
aI10978182
aI368924140
aI94274445
aI3483698062
aI556439021
aI54756241
aI20710292
aI4195221
aI922
aI18023323
aI20743068
aI754592
aI929
aI447406690
aI278954916
aI4129701
aI699373
aI28022257
aI19824796
aI18154412
aI19563438
aI1835951
aI1271595955
aI95912884
aI239207350
aI1349371
aI13632442
aI79201211
aI1701217212
aI16942014
aI197968032
aI10650562
aI10737142
aI15762376
aI564550847
aI76907468
aI271516623
aI977
aI978
aI171246547
aI28956153
aI5506012
aI989
aI1450190605
aI29262815
aI1180641
aI226984930
aI16581604
aI997
aI417694696
aI6821372
aI12289002
aI123929579
aI170230764
aI18940910
aI14353392
aI95028210
aI11990462
aI5997562
aI7832572
aI14484478
aI3026584577
aI31294468
aI15860743
aI75367432
aI14222345
aI201196554
aI20491095
aI6489102
aI14976016
aI17925141
aI14582812
aI234849309
aI295339039
aI5178401
aI18678818
aI139963227
aI1311781
aI379028519
aI17925160
aI25953324
aI22545453
aI206177328
aI217175560
aI21070898
aI1075
aI15210389
aI1081
aI1084
aI754752
aI5778272
aI416646214
aI1049671
aI23795212
aI18547787
aI787533
aI1102
aI16417874
aI15261673
aI35718229
aI29623382
aI65537111
aI17106008
aI499710332
aI33883
aI454493280
aI164103265
aI1579027831
aI16286820
aI14150503
aI2863175186
aI53118065
aI373395660
aI224811526
aI2344125559
aI7460372
aI18383994
aI7963772
aI1018692733
aI14695378
aI1153
aI1154
aI33923
aI189378756
aI2912617605
aI804015436979277824
aI4160259208
aI20153481
aI125502603
aI56263822
aI35821839
aI21824657
aI15806149
aI16811158
aI1176
aI20120731
aI7832732
aI13047322
aI28595285
aI10355872
aI224284008
aI1186
aI14517411
aI14091431
aI1192
aI444925097
aI6423722
aI1343784108
aI19563694
aI14222511
aI543491248
aI16482504
aI109937844
aI35226807
aI34013386
aI226428094
aI15008959
aI229606592
aI293131808
aI181404866
aI16090307
aI79234245
aI14976198
aI875234504
aI139363532
aI14550221
aI2438235344
aI23594194
aI561906900
aI14091477
aI79365337
aI15041755
aI14789498
aI1872823519
aI94143715
aI7537892
aI16581861
aI27618726
aI1424721133
aI178849006
aI17794287
aI5672
aI66803
aI44074228
aI951541
aI16602665
aI14550264
aI3310841
aI823428349
aI351798526
aI11764992
aI18381066
aI1007027460
aI5439702
aI90014982
aI17532167
aI3901129992
aI34330156
aI2622731
aI1293
aI66618640
aI786648
aI379487507
aI3044181270
aI19498265
aI51512603
aI13862172
aI9437402
aI21726494
aI754978
aI171251249
aI7177512
aI2872870185
aI18351403
aI219972908
aI134017004
aI1531843502
aI2877424943
aI21267760
aI2588509489
aI72353074
aI289342771
aI11262
aI14714170
aI18744635
aI19563837
aI185819561
aI438666561
aI18679106
aI16680260
aI8508982
aI37220614
aI31655247
aI95421776
aI25658705
aI9831762
aI19236180
aI22644053
aI16188759
aI36210016
aI1378
aI14320997
aI14232465
aI14681449
aI151487851
aI18175549
aI34163
aI14976372
aI8965112
aI20153725
aI19793281
aI43156866
aI106792325
aI855886999
aI14302580
aI99723
aI145565198
aI33509743
aI17859990
aI149882263
aI101025176
aI48006556
aI17794461
aI82871712
aI55510435
aI30246309
aI9733542
aS'dhh'
p2
aI755113
aI112039495
aI16254381
aI18777518
aI66993
aI156337587
aI55510452
aI820661
aI1344951
aI17853343
aI51643837
aI10782142
aI3492438994
aI4130241
aI201836140
aI2172913093
aI23561672
aI137172556
aI422020554
aI1483
aI947914190
aI4523471
aI309528017
aI26707414
aI26609111
aI292715332
aI1497
aI248284637
aI7445912
aI656863
aI32364059
aI10782182
aI2542536168
aI64882154
aI2437023211
aI29033967
aI79703
aI339772916
aI10716662
aI732073
aI2471396856
aI96601594
aI187629823
aI124257788
aI34571773
aI1050111
aI19269120
aI99843
aI17590159
aI1541
aI14386696
aI2396973996
aI9897482
aI14026252
aI607389197
aI2285143566
aI13436432
aI16778769
aI1474856467
aI5965332
aI11152302
aI103384600
aI14461871
aI17782362
aI29427232
aI218629665
aI1114834466
aI17008163
aI16254500
aI53970619
aI46454364
aI14517538
aI10454572
aI23791149
aI32736815
aI466880049
aI14698528
aI14303497
aI6723292
aI886331
aI435324476
aI14714432
aI76940865
aI10192452
aI1605
aI7636552
aI31163977
aI13895242
aI2419525195
aI855250530
aI309937733
aI3068200527
aI15271504
aI19388003
aI34244181
aI39585367
aI71669348
aI117012843
aI18384476
aI19164090
aI103089758
aI13600352
aI16548112
aI409316283
aI198547538
aI14962721
aI36931178
aI23516090
aI791124
aI34308371
aI10815092
aI729155191
aI1921123962
aI18876027
aI21714538
aI820585
aI22054528
aI258475649
aI10936452
aI1668
aI14156054
aI37426796
aI21563020
aI951951
aI16451218
aI267257491
aI14780052
aI8361582
aI14157462
aI1688
aI820890
aI2131611
aI31721116
aI22120094
aI16684656
aI4439377572
aI853671
aI5768872
aI29230762
aI17761963
aI16438898
aI31408413
aI265488048
aI657073
aI11503282
aI118720182
aI16254648
aI2528089716
aI123963067
aI4503439040
aI12420802
aI92122059
aI16778949
aI2599388870
aI1735
aI61625993
aI2206435019
aI460493
aI110823121
aI123111125
aI755414
aI157681367
aI10486052
aI15075035
aI10032762
aI2614722853
aI755425
aI126027490
aI18450149
aI248350439
aI15533800
aI16025321
aI15271658
aI23135980
aI468485869
aI34543
aI10880752
aI529794801
aI437651186
aI605891495
aI26052342
aI12650232
aI755452
aI234030846
aI15533823
aI19344531
aI210470657
aI405505795
aI14560214
aI7210762
aI16189195
aI17139469
aI18646799
aI160466705
aI18581266
aI13469462
aI24254084
aI16220463
aI1821
aI17663776
aI15370019
aI1652810070
aI15878470
aI9013032
aI21399337
aI16435161
aI549848877
aI43124527
aI75102544
aI821042
aI20219699
aI253389790
aI1289029430
aI788279
aI7210812
aI16877374
aI1050431
aI52332354
aI558040899
aI6521142
aI592906054
aI87721799
aI68912968
aI21759817
aI17565514
aI18715125
aI28355554
aI16615246
aI984911
aI65144656
aI25659218
aI25593684
aI22042254
aI15893463
aI80239819
aI71599961
aI20678490
aI4874962780
aI38530021
aI1888
aI17303393
aI12093282
aI984931
aI83820677
aI223741798
aI15304551
aI24990215
aI140886332
aI870156138
aI15533931
aI3015182189
aI24560310
aI261457778
aI59840147
aI6981492
aI20622313
aI27586014
aI35293052
aI1289530346
aI508823423
aI7997312
aI127625184
aI14747526
aI16843073
aI11929482
aI33687435
aI1720971878
aI18941838
aI14150637
aI541759239
aI4851601
aI17762196
aI14778692
aI4680714140
aI17106845
aI1851295646
aI253215045
aI14813088
aI384239522
aI705816941022154752
aI23660455
aI20732877
aI431359914
aI7899052
aI223671910
aI1966
aI317425585
aI1970
aI1312691
aI1972
aI190908343
aI2320140217
aI3308234432
aI1984
aI14112416
aI16779204
aI1935301
aI1601701830
aI16517063
aI100599752
aI14714825
aI34763
aI23140002
aI1999
aI237733842
aI24020949
aI14190551
aI119506909
aI125463050
aI8456162
aI258157563
aI146900965
aI21628903
aI16231420
aI2026
aI13779282
aI1000441838
aI3214673903
aI775861
aI6424562
aI9078772
aI19564533
aI274683561
aI47712248
aI38879572
aI3241117690
aI16910331
aI1952340558
aI546815202
aI2832697342
aI183076863
aI9111552
aI7669762
aI14519736
aI22808580
aI14319958
aI9701382
aI21465097
aI83265547
aI9144332
aI32540685
aI495175627
aI16680980
aI15603374
aI16222232
aI287541273
aI5638172
aI28870687
aI15468577
aI712833985789956096
aI14420004
aI46630950
aI14354471
aI5998632
aI1440253994
aI624683
aI755756
aI74090541
aI20744239
aI13994032
aI40044595
aI2290223156
aI149029214
aI15239226
aI90048571
aI866322492
aI177997886
aI323455039
aI2112
aI16821259
aI54102084
aI13801142
aI582233100
aI18962137
aI14288972
aI117180495
aI17107025
aI237424519
aI58329175
aI57444441
aI60783654
aI222693468
aI17238110
aI84379745
aI47974499
aI10422372
aI105584364
aI260959249
aI377325672
aI39815274
aI14354539
aI23791725
aI1559529583
aI23234672
aI25036913
aI28648783
aI39611411
aI22612084
aI46700222
aI28313720
aI1051396218
aI759487
aI2172
aI98764925
aI390327317
aI21731008
aI28641411
aI48171141
aI800707492346925056
aI141366977
aI2185
aI2426498071
aI18811020
aI9341072
aI21891218
aI458688659
aI364021909
aI84707478
aI14092439
aI15829144
aI3146962628
aI15960218
aI19868698
aI741302591766728705
aI20744357
aI54035017
aI54134951
aI19007656
aI16648362
aI96929963
aI47843500
aI14059694
aI21268655
aI21006515
aI340363445
aI26216634
aI138299852
aI1967622336
aI788673
aI15567042
aI404621510
aI2557446343
aI114690248
aI96602314
aI859335301
aI190744781
aI15141072
aI14944466
aI431917268
aI15173845
aI624953558
aI788695
aI6785242
aI2584250587
aI15861981
aI10782942
aI2787551
aI76613858
aI15403239
aI96536808
aI962693354
aI134908142
aI273531261
aI3725011
aI657653
aI11305
aI14459732
aI22874364
aI13109502
aI16910591
aI16288000
aI389005696
aI306958971
aI3048048901
aI224592601
aI2311
aI12617992
aI612534538
aI2477162882
aI91621646
aI5900562
aI27429139
aI5385262
aI14079705
aI90784132
aI657693
aI22448417
aI770771234
aI218433827
aI14321959
aI8227112
aI15239465
aI18254124
aI14289197
aI15832797
aI23857456
aI2353
aI15248435
aI19401013
aI223349048
aI14747961
aI1526601439
aI1870141
aI2268858686
aI49848356
aI9164512
aI140673419
aI43288900
aI17860936
aI15665482
aI11044262
aI9636172
aI6228302
aI15993167
aI5441872
aI3303861304
aI67923
aI47712597
aI19040598
aI2391
aI221546840
aI49514842
aI10226012
aI2397
aI20285790
aI276597088
aI18024802
aI16615779
aI14190948
aI14649701
aI85100906
aI15042927
aI6220862
aI17129992
aI8063352
aI2426
aI14162949
aI14616957
aI58820991
aI241273217
aI2435
aI2722181
aI14780807
aI24381833
aI177277325
aI25745133
aI1813571
aI291867029
aI14320025
aI446761369
aI115673498
aI99715486
aI179243423
aI756129
aI14191010
aI68003
aI2646215076
aI22095466
aI19335591
aI23923113
aI94276012
aI723373
aI22710702
aI250085789
aI2480
aI34139208
aI28608946
aI67635636
aI35253
aI41224630
aI592313
aI27869599
aI18549180
aI2493
aI8708392
aI17598915
aI657863
aI16812492
aI70388173
aI59279823
aI624383574
aI887251
aI13175252
aI16419288
aI126192089
aI11799002
aI14882554
aI18745824
aI137136609
aI21174011
aI1562544613
aI581241318
aI25766993
aI102566376
aI6490602
aI14445650
aI301926897
aI568403
aI5507572
aI1116661
aI391285240
aI821753
aI26101206
aI22872490
aI2791082494
aI14625877
aI237682040
aI788994
aI167315972
aI2565
aI723463
aI756236
aI2577
aI13535762
aI2869692947
aI15010324
aI202213910
aI363033
aI172460570
aI38275611
aI14617117
aI3233974814
aI29362720
aI44075553
aI4402088482
aI1051171
aI35556214
aI2304150055
aI756264
aI11299932
aI15206954
aI23890475
aI15469101
aI9515832
aI432245296
aI16200095
aI13216862
aI756278
aI35383
aI2618
aI22940219
aI43256381
aI2623
aI17782234
aI107186754
aI14289475
aI18254405
aI6031942
aI18377825
aI347048522
aI15698507
aI284494412
aI15960655
aI7506512
aI1083707504
aI15043157
aI1583286870
aI2230871
aI5507672
aI19780113
aS'caioab'
p3
aI9374302
aI16910946
aI2849016420
aI31124582
aI178817640
aI55511657
aI3063147623
aI366971503
aI1029188712
aI2675
aI14256759
aI41916942
aI2683
aI624413
aI14191231
aI593822144
aI245852524
aI67603078
aI690823
aI9464552
aI16878222
aI3302829165
aI252709520
aI51373
aI1152011
aI58458563
aI165218965
aI30870167
aI23085508
aI361597594
aI17042078
aI37636440
aI7122032
aI17599139
aI227117732
aI21957286
aI757303975
aI104237736
aI11766442
aI28548418
aI1328688242
aI6130352
aI20023985
aI14748338
aI2099891
aI756404
aI486214325
aI16222904
aI16026300
aI13404862
aI700227360
aI28576448
aI15108801
aI15239882
aI129799970
aI983501
aI296979153
aI18601763
aI44046831
aI2776
aI9251962
aI9505502
aI15665887
aI2784
aI14713297
aI14052373
aI24578794
aI2796
aI213486317
aI16747246
aI15796976
aI756466
aI12464072
aI15272693
aI2806
aI2807
aI34114297
aI17208119
aI11963132
aI14289661
aI373689086
aS'dburka'
p4
aI344623872
aI2067201
aI7012822
aI168332039
aI1098681096
aI8771372
aI20409474
aI822030
aI104336143
aI13634322
aI141789972
aI18909973
aI9767702
aI15141657
aI14322459
aI66030366
aI789281
aI9472802
aI39318967
aI218925862
aI35623
aI18058024
aI35153
aI14232711
aI18909998
aI204999472
aI21203763
aI8129332
aI108649244
aI149162807
aI115510072
aI854841
aI2874
aI550210364
aI3256282250
aI14158654
aI2427711
aI44632897
aI17953550
aI11884342
aI101321544
aI463473482
aI17828685
aI353766222
aI3252714491
aI15207252
aI381358786
aI369789785
aI3256912730
aI70159197
aI3160851
aI241634143
aI57084769
aI127798115
aI22973287
aI547064680
aI233897505
aI258837354
aI456887147
aI530934930
aI9279802
aI2525375635
aI8574782
aI11504502
aI17547753
aI354519929
aI561744762
aI22088575
aI14584704
aI1051521
aI221055875
aI250776452
aI7179142
aI14420872
aI14680556
aI480578442
aI10039442
aI198216590
aI14934858
aI4241651
aI570260898
aI594054036
aI887701
aI14420887
aI2285603736
aI42387965
aI27823004
aI17607834
aI118495045
aI395545504
aI836081
aI47938899
aI37115719
aI433163180
aI2927758254
aI658353
aI39595345
aI250416051
aI10750902
aI62887753
aI7998392
aI3522672077
aI17640607
aI121539516
aI1890618302
aI24484383
aI1532431296
aI191499202
aI966953923
aI33950666
aI122522572
aI17632205
aI30310904
aI183733203
aI215269881
aI17591460
aI386632667
aI797861
aI36768736
aI27298785
aI12454882
aI31099876
aI14846950
aI15761916
aI1738953739
aI3258125299
aI101846005
aI11144182
aI1389988856
aI613026810
aI613583868
aI3083261
aI15023872
aI98012162
aI199683
aI21892101
aI15633414
aI52857864
aI5409802
aI19877219
aI296225804
aI3662515218
aI106381827
aI2898824212
aI18091029
aI93017945
aI38013977
aI14257180
aI14243674
aI13929512
aI16878633
aI817997
aI41343022
aI756783
aI2927660082
aI16460979
aI3279359028
aI887861
aI822333
aI1245383743
aI17239105
aI36342850
aI1180171
aI910404121
aI3141
aI4885777479
aI18517064
aI37962252
aI2846960823
aI147309985
aI76603206
aI40307792
aI19106898
aI48991315
aI88575060
aI17105422
aI14945367
aI625753
aI81824860
aI57445469
aI6312822
aI14715999
aI9604192
aI15928418
aI101354595
aI12651622
aI35943
aI5475432
aI22154345
aI17632365
aI2908228719
aI9866352
aI24022129
aI3042184306
aI26282156
aI759919970742525952
aI12618872
aI15008276
aI8719482
aI175770747
aI30739580
aI5704832
aI245763201
aI86239754
aI855171
aI178848278
aI9571462
aI182619271
aI756872
aI15583876
aI4200301
aI1913306856
aI14453908
aI3935381
aI15532569
aI14879896
aI691353
aI932646043
aI120523932
aI6816282
aI14519454
aI18320544
aI168264219
aI11209892
aI259361958
aI155140636
aI73206956
aI147084708
aI92343472
aI108
aI13241522
aI150577680
aI3252
aI11340982
aI61705400
aS'chrismessina'
p5
aI14879931
aI43388092
aI203197630
aI631669280
aI170265794
aI1605161
aI14400609
aI17435847
aI3273
aI438242506
aI16911564
aI20810957
aI88545144
aI13274322
aI3283
aI101584084
aI15568085
aI677753
aI16002255
aI1976143068
aI1838301
aI34344158
aI6319312
aI90410211
aI45745738
aI103550181
aI3302
aI4341140714
aI55446763
aI11930862
aI14090792
aI278400242
aI3837171
aI34016500
aI16616694
aI18809385
aI2408615161
aI276955690
aI2239701
aI56528129
aI9800962
aI37784836
aI2845052167
aI981273865
aS'mccannatron'
p6
aI2755431692
aI133060482
aI45810221
aI55676177
aI20188434
aI213388564
aI101653
aI821202200
aI16878874
aI14486811
aI17894684
aI14126365
aI1955751
aI117590354
aI84053282
aI3364
aI224824615
aI343149864
aI10620202
aI822571
aI23039276
aI5489202
aI16813361
aI294784306
aI2173177140
aI3382
aI197520607
aI1043533116
aI9741722
aI114986303
aI5737792
aI1183041
aI6131012
aI186420551
aI2777713992
aI17927498
aI1078398283
aI3404
aI36572493
aI457280846
aI5344592
aI2616266066
aI232533219
aI15439604
aI3080761
aI54299992
aI85429594
aI25791837
aI20516191
aI8831572
aI3426
aI86524475
aI2868128998
aI17370471
aI537726312
aI192315964
aI15237693
aI20483440
aI9571702
aI1084791
aI1380814200
aI41880953
aI17029160
aI14355836
aI205753726
aI1543551
aI19238275
aI25890180
aI15849366
aI5901702
aI2002311
aI691593
aI48696714
aI4640050572
aI18812301
aI3471
aI16584082
aI3476
aI2270694806
aI53489490
aI15732121
aI15068399
aI36253
aI69023
aI10587552
aI7537222
aI1198099878
aI14257576
aI597331373
aI21302703
aI193334704
aI15630920
aI16190898
aI871042483
aI76045336
aI885321
aI31100344
aI1258237172
aI2735246778
aI40078779
aI19664316
aI14388669
aI10423742
aI3520
aI1150401
aI822722
aI14910027
aI30313925
aI17894854
aS'jonwestenberg'
p7
aI14243746
aI1601211854
aI185306575
aI9276882
aI1389071827
aI282922455
aI10194392
aI10327972
aI591
aI216600030
aI15994335
aI19251792
aI461429820
aI8075572
aI248385001
aI19664362
aI15535595
aI14273191
aI8752622
aI69103
aI24743408
aI191698856
aI42962419
aI2379714036
aI17621005
aI822774
aI691703
aI53625428
aI34175404
aI3003813372
aI10835882
aI9670142
aI18681343
aI18705362
aI106032384
aI14566079
aI1447851
aI87985669
aI14487046
aI626183
aI2728874785
aI65375759
aI192155152
aI2381319698
aI81497619
aI15207956
aI23924245
aI45452822
aI27132505
aI408038660
aI239570459
aI133893663
aI69153
aI288755234
aI67341859
aI31210805
aI55807526
aI17370665
aI301108778
aI341552391
aI1281581
aI9637422
aI156732976
aI16813617
aI12567142
aI30314035
aI42287710
aI10260022
aI2720351
aI12193342
aI14093888
aI1150531
aI52825668
aI228167237
aI16027206
aI15680097
aI26709576
aI14356041
aI822858
aI81497677
aI15363341
aI214371920
aI180948565
aI3002797656
aI3338636891
aI486870620
aI18618298
aI381777983
aI13897312
aI819814
aI17501849
aI334466665
aI37817962
aI3692
aI90189074
aI14706374
aI240455281
aI17239667
aI12947062
aI2065001
aI89427576
aI753595471
aI12193402
aI3293187707
aI6655612
aI62623358
aI266702463
aI752586368
aI7278212
aI7384342
aI9768582
aI157978252
aI14522307
aI2209743470
aI14126742
aI226987671
aI735153817
aI1058737818
aI20942493
aI23400095
aI563842721
aI1510641314
aI12390052
aI792518
aI13110952
aI8064682
aI1565724332
aI73588085
aI36572847
aI965
aI29986482
aI66163
aI1013208235
aI822966
aI18714297
aI48631482
aI18190011
aI271017604
aI790205
aI13962942
aI603459265
aI14388935
aI14192329
aI4394701
aI790223
aI16810076
aI21204689
aI155979477
aI122258041
aI17657124
aI17600218
aI3804
aI219059766
aI17233435
aI19367458
aI69665403
aI24144653
aI90828071
aI3067762642
aI5738222
aI427036400
aI434409203
aI21991158
aI1568041
aI69734136
aI2273873658
aI16912124
aI2723581
aI757502
aI3839
aI3840
aI15601410
aI16649988
aI3319533317
aI14225159
aI574885641
aI8654602
aI124227339
aI14356238
aI36623
aI21761808
aI2855472913
aI155062034
aI452431635
aI3860
aI9506582
aI1528958743
aI15437593
aI2316406555
aI312053532
aI3378515741
aI2457518725
aI18321186
aI18452260
aI14389031
aI139693866
aI15634220
aI5017391
aI15667666
aI9765512
aI3288371
aI260312885
aI65146678
aI2815823672
aI823098
aI1316831
aI1347391
aI14389062
aI55676743
aI16813897
aI44343
aI14454604
aI14454605
aI15925901
aI3922
aI823124
aI6996622
aI1581289837
aI55021400
aI823129
aI5869402
aI978322063
aI108334940
aI2643941
aI3936
aI2842169187
aI7180132
aI14946149
aI22974312
aI2854761
aI18845546
aI3314388843
aI570134380
aI34049901
aI16060270
aI24907632
aI11032552
aI1058297833
aI331495268
aI10489722
aI541257023
aI252186492
aI385159039
aI7311232
aI16912257
aI14356355
aI15732612
aI14126982
aI18943879
aI14159753
aI3980
aI156708162
aI16387982
aI45879183
aI13537172
aI14552982
aI3991
aI2384915780
aI17139604
aI6623132
aI9027052
aI15404958
aI14380357
aI757664
aI25661346
aI33931931
aI14749606
aI677873
aI10096552
aI148475818
aI16617389
aI2916978607
aI17371058
aI17076147
aI15110070
aI6426552
aI6641652
aI17371070
aI1667831797
aI33001408
aI15667138
aI25235395
aI11112392
aI3280841
aI47342086
aI161110007
aI27070413
aI2963902414
aI1074042872
aI17023651
aI16420823
aI14159833
aI7373992
aI31657948
aI1247514590
aI22548447
aI1191986634
aI188878817
aI236915777
aI19290107
aI10293222
aI16191463
aI6262762
aI869031
aI14159854
aI22122480
aI31100913
aI2167377907
aI15067551
aI151785462
aI11735032
aI4437582497
aI14178303
aI7209642
aI61664597
aI749270778181521408
aI727931252968394753
aI702507548683833348
aI741027429569957893
aI24973319
aI8556552
aI595853996
aI188387339
aI88707084
aI44699661
aI823310
aI626703
aI456200210
aI16422915
aI165744660
aI305762325
aI27562009
aI4774571354
aI62885919
aI372084769
aI16912418
aI14553123
aI18518052
aI5443622
aI240337585
aI18714664
aI112627753
aI547411842
aI16519214
aI310382639
aI14178312
aI356388915
aI211030068
aI18446783
aI1390055479
aI89296952
aI81170489
aI78365365
aI295342144
aI585666626
aI10273462
aI193596074
aI9902092
aI387321930
aI15568972
aI1658851405
aI15962190
aI166301775
aI865308752
aI3307114581
aI37392475
aI14946397
aI14291039
aI757858
aI719663840024268800
aI14179628
aI22581353
aI13602922
aI15962220
aI166203501
aI1549668462
aI80089200
aI1118321
aI4210
aI626803
aI7377012
aI2750877815
aI18518136
aI4217
aI14061690
aI450924667
aI4115992701
aI17240190
aI3714411
aI8622212
aI20551702
aI712966183134302208
aI36677387
aI40341642
aI4235
aI15536268
aI14907160
aI757903
aI1702148870
aI14651539
aI4244
aI17400516
aI207458459
aI878172186
aI8487622
aI444436646
aI224006311
aI190191644
aI15237831
aI4269
aI306632733
aI253464752
aI2363571
aI2834698420
aI594103
aI24500377
aI5411002
aI204247227
aI21729471
aI35754180
aI17111073
aI15634633
aI3379237066
aI28023
aI75993292
aI790734
aI485109112
aI22188243
aI529109204
aI14651609
aI112005339
aI1249501
aI2534636804
aI261918943
aI5378272
aI61673698
aI128953723
aI14127332
aI823525
aI7770342
aI588263
aI15077608
aI14061801
aI343019754
aI8360172
aI27037934
aI174741544
aI1112707314
aI21500149
aI44798200
aI1240305913
aI14255759
aI111417386
aI531501310
aI16847104
aI14970240
aI24711430
aI619352327
aI27726088
aI14356745
aI19732115
aI14717197
aI557945102
aI30019855
aI14323985
aI1546
aI14101891
aI15532382
aI1839381
aI9703702
aI18911511
aI191041817
aI626973
aI14192926
aI12488992
aI1052961
aI119609393
aI1250070824
aI156916653
aI1710002474
aI4396
aI1305940272
aI10235272
aI332083
aI20353333
aI4406
aI11407672
aI2902430012
aI22090046
aI40309057
aI13603142
aI15765831
aI259101003
aI140448077
aI469242190
aI118886737
aI823635
aI35000660
aI11407702
aI9933152
aI2425917793
aI1380711
aI117971004
aI15176044
aI14520685
aI38539630
aI28119407
aI17731952
aI163582321
aI16311452
aI21491091
aI11786302
aI18583927
aI3259535736
aI19042681
aI217158010
aI15077755
aI746
aI332163
aI257176808
aI11775382
aI9900422
aI217206560
aI4488
aI16814473
aI19730826
aI2211318180
aI1056838028
aI31232398
aI3031699856
aI21434769
aI15110546
aI58560915
aI627093
aI16133529
aI25825688
aI25629081
aI4509
aI594547102
aI3281311
aI919146914
aI6361512
aI91034026
aI15602092
aI2527661
aI17109422
aI156467955
aI559780277
aI714954063763341313
aI6217
aI5640632
aS'tomaslau'
p8
aI18485695
aI14225859
aI51253701
aI15110598
aI4025761
aI268308936
aI775852489
aI27922892
aI4558
aI6689232
aI386896337
aI18878930
aI4563
aI36475348
aI1303155157
aI17043927
aI169586084
aI15274460
aI26772218
aI47714782
aI125500842
aI15685147
aS'rrhoover'
p9
aI33657314
aI461148643
aI1806821
aI232307105
aI758247
aI18944490
aI13752402
aI14488050
aI14815732
aI3215861
aI47824384
aI21697015
aI10162682
aI1184251
aI9973082
aI15084970
aI10064382
aI4607
aI5542402
aI354161158
aI4615
aI413871532
aI28760151
aI627213
aI9507342
aI288217798
aI18846226
aI114987542
aI14129241
aI259428892
aI608338693
aI46699040
aI18214320
aI37771355
aI7246372
aI20681253
aI286830001
aI14193192
aI367858217
aI73956951
aI15876871
aI16486956
aI758319
aI1534038576
aI311661107
aI5870132
aI34050619
aI1056215612
aI544752394
aI38282454
aI124817987
aI2325615174
aI211620426
aI216994380
aI28235874
aI6623822
aI22745680
aI21631569
aI22355229
aI617747030
aI14160471
aI16159320
aI226039908
aI97653338
aI116462171
aI14586462
aI39191312
aI16504590
aI256765371
aI17404516
aI4711
aI6722152
aI21502055
aI148869740
aI17023762
aI952178792
aI1708661
aI15259753
aI1551184494
aI401052290
aI1408635523
aI18354822
aI72946315
aI17076876
aI4559501
aI16454301
aI15176350
aI16870853
aI27792033
aI30741154
aI856741
aI74617511
aI17633960
aI6123632
aI18618482
aI15325945
aI433689263
aI11178672
aI14422705
aI7770802
aI19665587
aI4791
aI14456948
aI530852398
aI1650397884
aI44339901
aI14127807
aI282890945
aI11965122
aI16257731
aI15536836
aI6132422
aI131928778
aI966759115
aI15930061
aI2993066702
aI78779089
aI4303983314
aI14615331
aI37753557
aI11965142
aI3187217112
aI12813092
aI65409755
aI2427589340
aI758493
aI14553823
aI47354592
aI589206241
aI56660706
aI18061435
aI60173
aI14881509
aI1535441
aI102306536
aI10836092
aI14455530
aI163222251
aI57873134
aI21631727
aI3576561
aI6943022
aI9835252
aI434213621
aI166138615
aI385712460
aI19968933
aI131144285
aI36147966
aI43979519
aI450597633
aI20747011
aI791300
aI16388869
aI11768582
aI94606087
aI4872
aI7291692
aI2895844106
aI249310679
aI9964362
aI17994509
aI1918931726
aI296227599
aI3081376528
aI4337144594
aI12764202
aI94606101
aI20222744
aI426513178
aI157647663
aI14193437
aI59413281
aI13407012
aI44503856
aI15864628
aI42954206
aI15292553
aI16561336
aI15063178
aI14160702
aI17797951
aI437228353
aI2294715205
aI17371974
aI758599
aI4936
aI14106405
aI1610571
aI18770875
aI28644174
aI30643023
aI29791056
aI14914385
aI27988818
aI2724691
aI14455637
aI42046295
aI208317924
aI16552794
aI3511131
aI142129677
aI824157
aI376935262
aI77468512
aI26088289
aI758627
aI14816103
aI407933800
aI349311849
aI798183
aI14193516
aI16487277
aI284660592
aI8039612
aI23565172
aI293770102
aI111842167
aI1381241
aI20288378
aI112890747
aI14127997
aI16388990
aI2503906176
aI37763
aI19716246
aI4999
aI12587912
aI15340427
aI693133
aI19976785
aI49189777
aI2594935698
aI824211
aI14390164
aI11178902
aI37783
aI41980825
aI40014748
aI1308732128
aI363336606
aI409572255
aI18682784
aI16028579
aI14674328
aI285217704
aI25826217
aI2319258540
aI393581486
aI15332057
aI14783408
aI25596851
aI13145012
aI14637214
aI47682486
aI44897207
aI6001592
aI337777593
aI8360892
aI19829693
aI75258016
aI27530178
aI20452293
aI693193
aI15504330
aI23663563
aI21271500
aI20812749
aI341251022
aI15307727
aI19436496
aI18617297
aI2470908884
aI922581
aI2190841
aI250188760
aI16356317
aI70587360
aI102908752
aI3084260322
aI106632164
aI441258982
aI15406055
aI564741817
aI85203111
aI44930028
aI28611565
aI5103
aI10032112
aI17520808
aI5107
aI36869108
aI229774325
aI125342710
aI16421879
aI44700667
aI456214699
aI529798141
aI131306494
aI6098102
aI382145536
aI13276162
aI693253
aI2218693638
aI116010497
aI29922312
aI235149484
aI338793482
aI17634315
aI31986700
aI44471310
aI791569
aI75764754
aI60986387
aI19403796
aI24155157
aI13767702
aI20616216
aI112897540
aI1909232666
aI14947355
aI15209501
aI5151
aI1020961
aI7738402
aI859
aI712381478
aI199037992
aI64853040
aI311313246
aI7410742
aI13014072
aI389485625
aI1536791610
aI223235565
aI17634365
aI702354494
aI39093
aI236262465
aI14521411
aI309597258
aI241948855
aI85103692
aI273515759
aI36672594
aI791635
aI2397271
aI18814041
aI8524892
aI14369033
aI19043422
aI5215
aI17372256
aI29044240
aI19207266
aI489336004
aI2339717990
aI936875112
aI3183721
aI14849130
aI103617645
aI14282259
aI271029364
aI19010677
aI5240
aI21828729
aI5242
aI13472892
aI700285802
aI314348671
aI15341760
aI32806019
aI9498462
aI726294419675189248
aI216422593
aI5256
aI3332347018
aI727192716
aI5264
aI109188241
aI340580547
aI811976
aI1729893530
aI19010715
aI83524743
aI126772032
aI23958689
aI3269655456
aI6296742
aI754545
aI4396201
aI14685354
aI18945195
aI6558892
aI16946352
aI6493362
aI41686195
aI273618104
aI25478004
aI100603066
aI562363
aI516003004
aI1213161
aI325261515
aI17405124
aI20845765
aI19240138
aI20895318
aI1558311
aI15865042
aI3353679059
aI3015644374
aI765476
aI556078299
aI7017692
aI79140061
aI551949534
aI6478032
aI165135227
aI8295652
aI15177937
aI7378152
aI23331708
aI1703384298
aI5357
aI58266862
aI858854640
aI23015674
aI2926023922
aI18700499
aI5444852
aI890101
aI21966377
aI9966842
aI87823613
aI753870383971917824
aI888706303
aI244290816
aI9388262
aI142196250
aI2518571
aI105223432
aI890121
aI600478987
aI247207180
aI14062869
aI14161178
aI18438362
aI7443742
aI710691686049906688
aI15734050
aI5413
aI17536294
aI14849319
aI16782632
aI46142761
aI7640362
aI14325035
aI64329005
aI114660654
aI59446575
aI35668872
aI5510452
aI61216054
aI14320521
aI1372853570
aI687593
aI11736392
aI4894659913
aI10786122
aI273585486
aI123278675
aI107135219
aI417204218
aI256283992
aI160535899
aI2792494428
aI3643621
aI8361312
aI15275361
aI17765734
aI26547559
aI628073
aI15045995
aI7695072
aI625874285
aI248845681
aI214668658
aI16061812
aI350907966
aI476878198
aI33478889
aI943560056
aI19862905
aI1359731
aI5885772
aI425774771
aI148373
aI5504
aI25040257
aI5511
aI420189577
aI5517
aI14325136
aI759186
aI7902612
aI15111574
aI16395844
aI19568027
aI112596381
aI317134238
aI25138591
aI99915168
aI17354608
aI38245796
aI9016742
aI379000232
aI26154411
aI17690229
aI8796452
aI5871032
aI54957497
aI251151263
aI455796841
aI14456253
aI10048402
aI18519488
aI14226882
aI14259653
aI5574
aI1381831
aI53646792
aI71113
aI3413451
aI16505773
aI124458450
aI792022
aI156407255
aI18060760
aI24216484
aI355866075
aI3776533395
aI17044957
aI561518048
aI1118318160
aI16324066
aI3125155301
aI815106
aI389060072
aI7017962
aI16979437
aI1389943868
aI5805552
aI23598577
aI1019188722
aI20092406
aI262444535
aI19928568
aI15406585
aI268965371
aI10917372
aI26312789
aI379825749
aI4653878354
aI239769093
aI2743169825
aI23074316
aI18617871
aI120651397
aI1283601
aI15406610
aI34838035
aI1219630614
aI1381911
aI1257838105
aI34772506
aI244422172
aI15013405
aI18257438
aI21632543
aI7575072
aI6133282
aI2397935144
aI239922780
aI163943978
aI14063149
aI20016733
aI6034992
aI119182897
aI14161459
aI3191477814
aI14935329
aI347084348
aI66246922
aI11376192
aI12064322
aI5699
aI6194102
aI5702
aI228628039
aI439129676
aI5711
aI61183568
aI792145
aI469309010
aI98388480
aI183414791
aI8525402
aI17307227
aI18804325
aI13538912
aI5871202
aI486970980
aI15210087
aI12031592
aI2300314556
aI14653034
aI431723
aI946804332
aI13768302
aI50534000
aI14456435
aI336533108
aI16520821
aI16100969
aI418387578
aI28481147
aI5758
aI1447551
aI14063232
aI17110657
aI1979553410
aI1946195588
aI725713469375434752
aI27956873
aI14423690
aI16357003
aI7378572
aI46959157
aI89429647
aI196745496
aI212702867
aI32446100
aI9672342
aI332018940
aI18269124
aI83351834
aI28612255
aI303601312
aI95360674
aI385567371
aI19994279
aI2279741101
aI561321646
aI22813
aI17414143
aI628403
aI25958068
aI94639797
aI5814
aI45029047
aI6297272
aI11975512
aI2590840506
aI3065381834
aI88741566
aI1021631
aI230856384
aI2508560065
aI725818342481776642
aI14161605
aI10458822
aI324638408
aI14451660
aI159061707
aI7640782
aI16188200
aI5841
aI263290939
aI2176751316
aI16567650
aI759512
aI420386521
aI163747548
aI21599965
aI11671262
aI890591
aI233588955
aI8132322
aI219551459
aI1714558692
aI73914662
aI6264552
aI920491754
aI250386727
aI759532
aI11076562
aI7428392
aI11540212
aI46470906
aI18886271
aI15537918
aI6166272
aI494671617
aI4265731
aI3097106180
aI14292743
aI110171914
aI4825421579
aI2229638924
aI2573276942
aI1874221
aI17964562
aI381316332
aI84610787
aI1010497975
aI141432601
aI729749274
aI3565393692
aI37649640
aI30828986
aI61183777
aI40998690
aI988
aI2706872107
aI20420396
aI43489069
aI9213742
aI36869938
aI18093879
aI16925539
aI1054521
aI1414971
aI189273917
aI759616
aI15865665
aI15636291
aI15046469
aI91985735
aI2997491528
aI2931464009
aI257333068
aI8564482
aI29300560
aI369261529
aI17903246
aI18749271
aI14980953
aI14194522
aI62003514
aI8197982
aI16951996
aI9967462
aI185636713
aI2453638579
aI18159470
aI244979567
aI164815567
aI20092786
aI131307382
aI318412664
aI66590585
aI6363002
aI7214972
aI18263701
aI1422858116
aI166205761
aI71571339
aI44320813
aI28219278
aI547002258
aI30477646
aI1087381
aI532780954
aI661403
aI2282723228
aI270899101
aI7062512
aI33789860
aI759720
aI20043751
aI2233489735
aI8820652
aI22190000
aI193468339
aI5380022
aI2705397687
aI11802552
aI8067002
aI91166653
aI45914046
aI17995712
aI858051
aI20900799
aI226178373
aI33331143
aI46208973
aI6095
aI12650302
aI34641875
aI72914900
aI327194582
aI48132847
aI6104
aI792537
aI15570907
aI989151
aI12294112
aI366854789
aI19699682
aI111701670
aI58726374
aI14364327
aI106469356
aI6606572
aI14063602
aI6131
aI18061300
aI7373822
aI6274202
aI19336024
aI14653432
aI6140
aI14817278
aI252691456
aI30840835
aI3302201349
aI89459777
aI2997666817
aI247666697
aI121542666
aI15341579
aI11704332
aI133975702
aI14227472
aI20256785
aI6163
aI14358548
aI394784430
aI15865878
aI116332567
aI10623002
aI595466267
aI43980828
aI14817309
aI40441888
aI6177
aI764199560835108864
aI161749029
aI5576742
aI5478442
aI36444204
aI628783
aI30611504
aI70195249
aI31037401
aI3043039287
aI15145017
aI15439930
aI6204
aI22812734
aI36542528
aI2168920129
aI10950722
aI28710980
aI1022021
aI29890630
aI18159687
aI10721352
aI51910729
aI144185418
aI19929165
aI14429880
aI32512082
aI7308302
aI160864342
aI634553
aI227317849
aI21829724
aI553556062
aI278501473
aI792676
aI14817381
aI14227559
aI14620776
aI351017065
aI2924451949
aI29399151
aI540022897
aI792690
aI241255443
aS'mitchellharper'
p10
aI7542902
aI94378105
aI8099962
aI612833403
aI792700
aI18880638
aI14096514
aI199399558
aI1016051
aI152115336
aI19601545
aI1000471
aI17569934
aI15177871
aI18815120
aI14336964
aI416061586
aI792724
aI397613205
aI3270678680
aI548171460
aI138877086
aI22681759
aI226662562
aI14129316
aI218558150
aI39753895
aI74946728
aI11469852
aI792748
aI17799538
aI612959261
aI11228352
aI18880691
aI19470516
aI41719989
aI369105079
aI14031032
aI319822010
aI168663228
aI286791871
aI86153408
aI1888229570
aI8984772
aI16423109
aI311367878
aI3234666699
aI19639601
aI342202574
aI16871117
aI15014097
aI2799540434
aI3070728404
aI15931605
aI15631741
aI191065807
aI7280862
aI71903
aI15833312
aI23008116
aI326342883
aI1434611485
aI6373
aI17040423
aI111505106
aI26515694
aI19273968
aI12196082
aI2775674579
aI582195445
aI12916982
aI94738680
aI243538170
aI24910075
aI6297852
aI92346621
aI56962773
aI17438976
aI84662020
aI13414102
aI393697665
aI59611400
aI41649196
aI798660169878142976
aI17821399
aI15931663
aI14391568
aI6647512
aI20846868
aI21469462
aI21502232
aI1084659996
aI18454814
aI15063429
aI382605604
aI17373477
aI6438
aI339646759
aI12097832
aI17668397
aI14850356
aI28416309
aI2230433110
aI14752057
aI37067066
aI2884442428
aI14424381
aI14411861
aI1710401
aI4502671
aI792907
aI59087182
aI989581
aI16324945
aI17209685
aI53778774
aI116556857
aI31660376
aI23042393
aI145725839
aI20945245
aI33659233
aI324639074
aI1120611
aI14293348
aI74575590
aI319887719
aI2886539624
aI19405164
aI226728306
aI23583123
aI14621046
aI200415607
aI15309176
aI534780281
aI2785352058
aI43009087
aI14260608
aI1470470532
aI2174982534
aI9410952
aI14883212
aI256153997
aI2333071
aI40196504
aI123967892
aI105018214
aI62855576
aI15178138
aI131144091
aI74520986
aI15729734
aI19274150
aI16008263
aI39557548
aI1350061
aI14260655
aI15473072
aI876288433
aI16685491
aI2756414052
aI29432246
aI2207973936
aI14621112
aI2401933753
aI1433246138
aI6587
aI1284541
aI16193982
aI6591
aI176896409
aI50480203
aI2254182852
aI19175877
aI215488966
aI6600
aI10040
aI771004880
aI352000466
aI1615463502
aI15440344
aI207559129
aI10263002
aI15964635
aI14227934
aI18176421
aI16980448
aI20694096
aI2263423458
aI17078755
aI330799588
aI2671556916
aI22747624
aI155359721
aI125213162
aI19700204
aI760303
aI15571441
aI321034738
aI47585779
aI244652534
aI4921851
aI2753337852
aI196978660
aI97982451
aI22354434
aI3365291
aI7870982
aI5773832
aI27131171
aI18881035
aI1716361741
aI33102350
aI23960081
aI17701394
aI22387220
aI8952342
aI7510552
aI17641220
aI5904922
aI18586031
aI2986220060
aI25969754
aI49912351
aI19956827
aI16936237
aI19536422
aI10630012
aI59611690
aI17968903
aI52632107
aI12851762
aI727603
aI270735926
aI22780471
aI17046072
aI5937722
aI17930811
aI109025852
aI33528381
aI5380672
aI15828064
aI6722
aI280042052
aI211753541
aI15086810
aI133153889
aI53156428
aI57907789
aI49271012
aI66591314
aI120101462
aI218634839
aI8040762
aI2865666652
aI26253754
aI8526432
aI25401953
aI15473250
aI7608932
aI1414865880
aI125180528
aI44341873
aI16683
aI431926247
aI3588725368
aI1963014150
aI793023
aI7019132
aI14752382
aI23272063
aS'bchesky'
p11
aI11639232
aI2090831
aI16194181
aI807959052122804224
aI14670273
aI21300333
aI14424721
aI7379602
aI236554963
aI382966420
aI2467633813
aI8788632
aI18061977
aI13081242
aI19864220
aI23009949
aI55155361
aI17177251
aI8821412
aI18389670
aI26379377
aI23075496
aI306420393
aI2388400813
aI134344477
aI476256944
aI16915121
aI39295667
aI13507252
aI101857820
aI69573308
aI5511872
aI14097091
aI15473348
aI6854
aI11541192
aI12409292
aI52206282
aI881067127
aI9662242
aI400286802
aI400235217
aI3162348242
aI72403
aI17564793
aI16194269
aI22026974
aI6880
aI13028322
aI743086819
aI6884
aI154639081
aI135011050
aI95296236
aI48012015
aI250026736
aI14331688
aI28953366
aI1383161
aI30808826
aI5511932
aI1442290429
aI9313022
aI1409227520
aI270681216
aI11231232
aI736743
aI19836975
aI16521996
aI17799952
aI4142734101
aI2422348249
aI14850840
aI15801116
aI1317661
aI887397150
aI170783
aI179673888
aI19208994
aI793379
aI15145767
aI55450409
aI80747306
aI71932716
aI25983654
aI89529137
aI17767219
aI133880286
aI3306363702
aI8985402
aI69129670
aI92281665
aI1132010306
aI19033910
aI45161287
aI28384075
aI20466813
aI6989
aI1153871
aI45947728
aI51288913
aI103422803
aI33561428
aI565418837
aI16554838
aI21107053
aI15178584
aI826201
aI14130010
aI15080283
aI369585978
aI14261086
aI14687072
aI56520771
aI364714851
aI69671781
aI18094952
aI14424551
aI667453
aI23960432
aI14588785
aI1417190262
aI199760361
aI21207928
aI331651962
aI273837887
aI14435477
aI2175441793
aI5446532
aI179608454
aI14097287
aI21896072
aI20519820
aI14708546
aS'zeldman'
p12
aI4119021
aI211000209
aI16063378
aI47765998
aI13671322
aI1088411
aI1121181
aI5708702
aI662433
aI253500322
aI20356003
aI15539108
aI23272359
aI40803241
aI21076906
aI16819053
aI23960050
aI27302830
aI490777449
aS'isaacmorehouse'
p13
aI70103
aI2547915701
aI1055671
aI14785464
aI701635518
aI1800601
aI759663
aI103324612
aI21371846
aI382376904
aI859081
aI10066892
aI985777314
aI14687182
aI9640912
aI15099007
aI1898257362
aI16489427
aI1547221
aI32349142
aI40180697
aI14511951
aI13696102
aI8531792
aI6527972
aI7141
aI14616949
aI2825191
aI85129115
aI7215612
aI204970988
aI17046509
aI7674862
aI14097392
aI19307505
aI9378802
aI91167731
aI9247732
aI195697653
aI6822902
aI7019512
aI133798906
aI820394
aI7173
aI16194566
aI19012615
aI2563081
aI14130186
aI45980684
aI29629453
aI39263246
aI29203471
aI1503861776
aI14425105
aI25271314
aI15506452
aI403506350
aI15834137
aI14097434
aI14392347
aI1568152604
aI959028253
aI353344542
aI1969232929
aI56302626
aI1491442723
aI4004901
aI3032241
aI15970140
aI254680107
aI15211564
aI85607602
aI3152375645
aI15866929
aI264902617
aI15473717
aI5696
aI14326841
aI438869050
aI12551672
aI79893
aI15211585
aI14800329
aI160242757
aI6331462
aI24801121
aI17633994
aI2753502281
aI159587403
aI367693
aI12524622
aI132062287
aI19045458
aI629843
aI20913237
aI278731863
aI594933458
aI364937869
aI17374302
aI1186911
aI40033
aI1335368803
aI279930703
aI1077648487
aI14752873
aI15113324
aI41557101
aI61611118
aI3021941
aI36740214
aI604609655
aI100801656
aI22944276
aI34413691
aI5774462
aI3100122239
aI26745984
aI17472641
aI17702019
aI10426902
aI106568838
aI74095751
aI97005420
aI1488788618
aI2727051
aI242359437
aI850107536
aI1434164370
aI23600276
aI173743253
aI1134647833
aI7095492
aI121707674
aI662683
aI36510877
aI18187461
aI263953568
aI2761890977
aI3775651
aI15566022
aI18816166
aI6790312
aI9869852
aI466787498
aI167582891
aI14097580
aI15544178
aI2402294958
aI15079965
aI55647408
aI15369416
aI107486386
aI306245491
aI463215797
aI11934902
aI2340134072
aI17964217
aI36838587
aI54959293
aI10919102
aI3078462655
aI975731
aI496082117
aI28679508
aI560176329
aI23403722
aI5905612
aI288922829
aI108698830
aI17505487
aI7937232
aI8049512
aI9198472
aI121920035
aI21634261
aI35921110
aI78290135
aI65073061
aI7281882
aI23590478
aI312089821
aI120659167
aI17374434
aI793830
aI3579111
aI1516412136
aI15734342
aI2861014253
aI2382372078
aI1529667498
aI360831528
aI285547763
aI14982388
aI662773
aI1219831
aI3107986683
aI16948477
aI12459262
aI1246421
aI668253
aI36052231
aI1185094921
aI33463563
aI211721484
aI236813
aI368778510
aI249045231
aI14458130
aI87322499
aI49454356
aI338009366
aI17931543
aI15703320
aI27008284
aI16391453
aI3315664119
aI163979987
aI8953122
aI793892
aI1318181
aI421371176
aI2202921
aI7468
aI588553517
aI2338889011
aI19733812
aI35757366
aI391650616
aI7482
aI2291670331
aI1908031
aI761153
aI8658242
aI3356531254
aI254330081
aI586690444
aI1285451
aI5545292
aI5446992
aI242424376
aI3105922386
aI1894522195
aI7478612
aI218799445
aI14270629
aI7512
aI16227673
aI8592732
aI341319005
aI89759070
aI17237221
aI28896648
aI218733924
aI51748197
aI58400102
aI22814055
aI102702440
aI87629163
aI367041900
aI2565283185
aI20323699
aI76245147
aI18980215
aI1289133432
aI150928080
aI10886522
aI25271676
aI207142764
aI14491008
aI26123649
aI23960964
aI17503069
aI39099783
aI7380362
aI17472908
aI14851469
aI7773582
aI409771409
aI24649110
aI14228887
aI17674377
aI6183492
aI65052058
aI36511131
aI3714971
aI392240548
aI17997221
aI28188070
aI216735143
aI51551656
aI14266268
aI29678151
aI3010731441
aI17636792
aI286989757
aI20775032
aI14856096
aI711243
aI39984581
aI138026439
aI381289719
aI5381582
aI59121104
aI304858360
aI2216041938
aI17341907
aI606687121
aI73173
aI10755542
aI229875160
aI12196
aI74227162
aI9215452
aI79371743
aI19373269
aI19717213
aI4804582887
aI488326396
aI13409772
aI39511166
aI444767727
aI14109658
aI291806707
aI18327967
aI61642607
aI30956116
aI86908410
aI5479932
aI434783947
aI1416711
aI72982024
aI47783436
aI191274509
aI21896718
aI252648975
aI16588304
aI13049362
aI29859347
aI121728942
aI16031256
aI1056281
aI17866266
aI12317302
aI16686625
aI18936054
aI1360004358
aI15310374
aI1154601
aI11804202
aI14065196
aI351346221
aI7282222
aI1252911
aI49749552
aI115646001
aI17702451
aI61429402
aI22948905
aI14982710
aI52076089
aI7738
aI1176051260
aI14720577
aI14632203
aI12230212
aI637176011
aI12081762
aI17866318
aI266182223
aI19111507
aI695893
aI14327382
aI15216569
aI14098008
aI4071001
aI26648158
aI1282121312
aI16129633
aI496723
aI17899109
aI3065355878
aI14851687
aI14229096
aI372973161
aI14572135
aI1363142028
aI6594162
aI4883731
aI119156670
aI3194008334
aI32775800
aI102932090
aI131704024
aI237051517
aI794238
aI5512832
aI71528384
aI110773526
aI357013744
aI3219081
aI14392973
aI119938369
aI595631760
aI4335028397
aI14593987
aI246324884
aI95146803
aI14327450
aI23338651
aI6987422
aI14135237
aI23505897
aI17047202
aI17505956
aI5386182
aI7846
aI542972529
aI2828181162
aI15507115
aI41733
aI11837102
aI925361
aI26368627
aI42507956
aI17997493
aI14327478
aI20455095
aI15408824
aI126779756
aI18055737
aI25206461
aI23994049
aI5447362
aI15101900
aI145432267
aI2203341
aI193780345
aI73433
aI16096986
aI15179486
aI16467237
aI14196449
aI169221860
aI16424680
aI114859756
aI236526490
aI7511792
aI69115633
aI11050742
aI31432442
aI15933180
aI71376638
aI3018596095
aI14786305
aI3131449090
aI220045059
aI3940101
aI32382727
aI116498184
aI17243913
aI17112843
aI20094734
aI6495762
aI14098195
aI498835221
aI729580304
aI17768216
aI17243929
aI761628
aI18219955
aI14196511
aI260022048
aI19072304
aI19210018
aI15265755
aI834281252
aI359650922
aI40743
aI5644072
aI14285961
aI2432811
aI18358060
aI17932082
aI17571636
aI7020342
aS'DanielleMorrill'
p14
aI630593
aI114499400
aI434708299
aI128622412
aI15452755
aI2593693519
aS'msquinn'
p15
aI70852434
aI55058262
aI216440664
aI12689242
aI214048603
aI1482938744
aI5906272
aI2802392929
aI3863486306
aI22881265
aI21831524
aI15101926
aI40378214
aI2543461
aI136386071
aI16031593
aI21700460
aI5644142
aI66288602
aI12264
aI12063802
aI16031604
aI1107019070
aI777154537
aI5807992
aI8953722
aI55385979
aI110763904
aI261621057
aI15003628
aI12984202
aI18695490
aI6317912
aI2327747334
aI3234209683
aI255979502
aI32350102
aI73623
aI24223641
aI12459932
aI33988509
aI2350753812
aI198418336
aI287874977
aI3037851
aI14294948
aI211961158
aI14294950
aI17641457
aI3025870761
aI10439482
aI41054194
aI14622638
aI42818205
aI625257794
aI193044403
aI7118772
aI14360501
aI348659640
aI346333113
aI20422586
aI134404767
aI22454205
aI85958590
aI3138367477
aI9641922
aI291479491
aI19668934
aI115253191
aI7761912
aI315465682
aI2722865107
aI322838484
aI19537877
aI18816982
aI939629220
aI86351835
aI295695430
aI17997789
aI4636
aI1449951
aI30351331
aI370662054
aI14589927
aI36020201
aI28319725
aI49149135
aI1597972465
aI11247602
aI20596051
aI8180
aI18587640
aI17768442
aI15015932
aI1209049086
aI704462466244222976
aI809167145506484224
aI7413762
aI2779381
aI8265732
aI289087494
aI41656328
aI876617738
aI860171
aI696333
aI1777681
aI10002452
aI251773415
aI131244058
aI14588591
aI220241948
aI148152350
aI6463522
aI65151012
aI42934309
aI22552614
aI84839667
aI1679401
aI982851626
aI72917035
aI18128940
aI16228398
aI17888143
aI663603
aI5447732
aI260916574
aI15212598
aI2516688952
aI17832628
aI8250
aI29794365
aI16293951
aI1866735680
aI29563353
aI132096070
aI129343561
aI19203426
aI43162296
aI103559182
aI311664727
aI15900761
aI47259738
aI520709369
aI268607581
aI51945566
aI2279671141
aI41132128
aI60760161
aI134144896
aI206938213
aI50110567
aI1676353640
aI5382252
aI24178706
aI277618799
aI73843
aI12263542
aI761975
aI860281
aI12494
aI557359230
aI17408127
aI14229632
aI1934990016
aI5663242
aI2469299563
aI7250052
aI696453
aI197927048
aI1967530124
aI10035342
aI794767
aI1380367110
aI52600980
aI9183382
aI19968025
aI7215812
aI934224026
aI17342619
aI14033052
aI222797981
aI29466782
aI18784415
aI14426272
aI2990241
aI1292116130
aI8356
aI75341989
aI17801384
aI24244252
aI78192811
aI5185711
aI794801
aI16359602
aI15474870
aI41143
aI24846521
aI6004922
aI3357441
aI14327996
aI14857106
aI1161437377
aI60498116
aI18391239
aI19734728
aI20455625
aI263168202
aI19407053
aI217456846
aI1974481
aI408154147
aI5480662
aI991451
aI2592022748
aI14983390
aI14393567
aI46145761
aI7184612
aI17735909
aI14196966
aI3307708647
aI7643372
aI14328046
aI14328047
aI16687344
aI336113
aI16095955
aI2255036665
aI38183162
aI22097962
aI16457983
aS'bramk'
p16
aI24748289
aI14328066
aI26386691
aI110600452
aI326869253
aI26517768
aI47423753
aI7694
aI448733455
aI74003
aI467116308
aI42246421
aI893211
aI15201143
aI1253661
aI23732512
aI1731764514
aI12329252
aI12404102
aI3356074280
aI74883370
aI419022215
aI45556012
aI16556333
aI6627632
aI481494408
aI15638834
aI53178419
aI2647312068
aI91431221
aI44179766
aI67924644
aI18227519
aI14949088
aI348365123
aI9085252
aI29270341
aI6332742
aI168270561
aI8520
aI14164297
aI14098762
aI4313882955
aI29598029
aI14524750
aI4071761
aI14131538
aI25600340
aI602317143
aI18686296
aI8723172
aI102572378
aI15189391
aI29743845
aI253796705
aI16621927
aI56336745
aI384278890
aI375806695
aI199827822
aI15966576
aI33333620
aI17182782
aI2400631
aI8569
aI26681722
aI29072106
aI10035582
aI14786943
aI347316612
aI21438853
aI39952775
aI17998216
aI15245706
aI14524814
aI23273872
aI3300041105
aI8594
aI2809831827
aI57418132
aI191439253
aI3099501
aI236134810
aI149070235
aI239509917
aI277455263
aI9445792
aI242173339
aI137798052
aI17233595
aI15770022
aI232268199
aI184656298
aI319385671
aI8620
aI121348526
aI1024431
aI365470129
aI10822072
aI139993529
aI19636666
aI532923
aI25731516
aI23998538
aI17113536
aI2982584772
aI136669785
aI69050823
aI12984782
aI19730102
aI96417997
aI16483747
aI390101181
aI89223802
aI336343
aI8308132
aI98476506
aI26385146
aI14655968
aI50242018
aI10723812
aI17221030
aI5513702
aI21065809
aI15999465
aI1206002154
aI16228845
aI14524910
aI47571378
aI12371
aI18031093
aI26419703
aI16874616
aI15573498
aI14393851
aI59482622
aI80585215
aI275030531
aI16261638
aI795143
aI502243848
aI9544202
aI12375
aI271950348
aI2733318672
aI8722
aI109617683
aI151822870
aI463544855
aI19505688
aI20662781
aI3156681244
aI2990621
aI19046943
aI16491040
aI59884976
aI14262821
aI1151411
aI338862631
aI14983722
aI926251
aI180003372
aI17539630
aI1155631
aI30253617
aI6624542
aI749478451
aI276537909
aI38380086
aI4163705609
aI111092283
aI26387006
aI24025885
aI32973382
aI14066247
aI131801672
aI1614411
aI18915917
aI4170321
aI5481042
aS'SamuelHulick'
p17
aI532641123
aI195633751
aI17932888
aI21471834
aI60807469
aI130032225
aI3048891
aI1372527356
aI195240552
aI1239696828
aI3413058154
aI18075954
aI795244
aI1561889707
aI78455406
aI39559795
aI20648839
aI905807294
aI12001912
aI21617428
aI426222205
aI14721665
aI39592581
aI1974921
aI2837684879
aI1397236370
aI14426771
aI354067093
aI9216662
aI41623
aI14253727
aI390931103
aI12400
aI17900194
aI374219427
aI240886437
aI16549465
aI860841
aI31038237
aI8881
aI8882
aI15082164
aI534010483
aI156967608
aI43000507
aI322904764
aI14648778
aI208269429
aI834544321
aI177818843
aI434883
aI161082009
aI104964807
aI15049416
aI631503
aI87899553
aI376152787
aI27788750
aI159982297
aI442999514
aI25567963
aI79274717
aI15508191
aI13705952
aI131375843
aI16238495
aI20732710
aI591313
aI17179368
aI48603882
aI20423403
aI1058743022
aI248849136
aI1036755697
aI4473931
aI19604213
aI27272003
aI13837052
aI15670058
aI14361342
aI15442689
aI21865219
aI363078404
aI29148630
aI14687020
aI14131979
aI10892692
aI48374542
aI1172218640
aI9160152
aI33104659
aI1083791
aI14211886
aI402752985
aI16425752
aI74523
aI7718362
aI15311647
aI17703717
aI17474342
aI8004392
aI43033385
aI15704456
aI101524268
aI24879918
aI74543
aI105816882
aI631603
aI60498741
aI41783
aI368321336
aI2728761
aI13706042
aI853471
aI887595840
aI218833730
aI9027
aI16393028
aI795461
aI82453323
aI50832208
aI10658642
aI106898260
aI1467871
aI36053847
aI186000217
aI70034266
aI739862016114954240
aI11606592
aI16991717
aI17998691
aI20652901
aI116721413
aI45851500
aI14885741
aI19243887
aI7381872
aI245375860
aI14852981
aI13378422
aI14263159
aI261104505
aI323691386
aI218145659
aI525791381
aI18237511
aI13083522
aI21317099
aI15934340
aI9093
aI1021341696
aI18037774
aI17802123
aI25285060
aI109159309
aI2881135503
aI23961121
aI70671171
aI2905088920
aI2899125145
aI20163296
aI14590880
aI14295969
aI54600611
aI58598308
aI15442853
aI29729702
aI3032561
aI21668776
aI145171369
aI14460277
aI100901806
aI17802163
aI380749300
aI15298719
aI62023062
aI982066110
aI14918591
aI11641792
aI2280334273
aI14558147
aI16057846
aI59679686
aI207758279
aI2314904520
aI198026185
aI1347462090
aI2803191
aI17933260
aI780510157
aI16163790
aS'khoi'
p18
aI46670802
aI10822612
aI18654165
aI35202006
aI147301335
aI227091416
aI74713
aI271557595
aI14164956
aI16098270
aI195545447
aI17474531
aI624783526
aI2249040870
aI198910955
aI13837292
aI3863585773
aI1366401
aI552838129
aI14263283
aI20947956
aI2413208568
aI82289657
aI17802234
aI34303
aI795649
aI18752516
aI19178501
aI728347697246142464
aI15008676
aI29028524
aI957271
aI56632332
aI19410420
aI707372047
aI206936920
aI14616067
aI163947540
aI353838102
aI228205591
aI259371777
aI24486938
aI363340832
aI14885921
aI724060227029467137
aI14296102
aI137798696
aI422388777
aI234857514
aI37987371
aI3001675954
aI38380590
aI795695
aI18269704
aI14492722
aI15180852
aI9269
aI16655414
aI15180856
aI32796852
aI6267962
aI16262203
aI101721148
aI2530166282
aI9279
aI16205323
aI221491382
aI9413702
aI2473960522
aI2139211
aI1864574028
aI14272162
aI14754895
aI18326609
aI365929554
aI26223699
aI449258580
aI7709782
aI41788503
aI48778278
aI795741
aI2706351198
aI6595682
aI11215972
aI2307040357
aI195863654
aI1335150097
aI3187821
aI15246449
aI51518017
aI88450167
aI2963547257
aI644943
aI157394043
aI22717564
aI47537002
aI5907582
aI14165119
aI24880256
aI208577666
aI14420998
aI17998983
aI22553736
aI239445130
aI15803531
aI139764878
aI857318544
aI74130577
aI14492822
aI316420485
aI594325700
aI42312858
aI2415303535
aI1680541
aI14984353
aI16566940
aI1247670452
aI14414022
aI14275130
aI19080361
aI1871586474
aI963814572
aI1417290926
aI636757167
aI11347122
aI37037235
aI26813621
aI75220511
aI17245372
aI2224331
aI29140169
aI52929738
aI18490571
aI15279308
aI457745613
aI1117005007
aI19699576
aI19670226
aI22717651
aI126592212
aI130589909
aI34055382
aI632023
aI61023448
aI81175771
aI33662172
aI14457722
aI21112031
aI12496
aI173283
aI13477092
aI22193381
aI6870422
aI1421521
aI29402346
aI24659495
aI5743852
aI2903273682
aI14099694
aI145040623
aI9457
aI48407794
aI14230772
aI16262391
aI18818296
aI244655353
aI728933
aI14820604
aI109323518
aI80520447
aI630465792
aI2249590315
aI15246596
aI730373
aI22553864
aI140406999
aI11019532
aI234677047
aI720676111
aI161162513
aI26711180
aI2455250197
aI14066967
aI28386584
aI1653824388
aI16582191
aI9970972
aI42470372
aI355742545
aI394177602
aI61168518
aI20555046
aI60410733
aI27174184
aI1680681
aI14460202
aI13346092
aI111060272
aI21650312
aI79832370
aI1102084243
aI216507702
aI144512973
aI6571572
aI226239804
aI1058111
aI23799105
aI16098626
aI18317118
aI18031941
aI14239565
aI158704969
aI144581964
aI21377250
aI12920142
aI15508815
aI305669456
aI5449042
aI18654548
aI35595608
aI245678404
aI28550490
aI22521179
aI17573212
aS'dharmesh'
p19
aI9151842
aI16025147
aI8070502
aI1170321
aI15148392
aI19178857
aI1898947946
aI15954151
aI108209516
aI43293586
aI16491888
aI96675188
aI15386174
aI15574391
aI89793918
aI16849813
aI14296450
aI285025668
aI7134102
aI275522950
aI14132616
aI249475308
aI16917899
aI823207
aI1719941
aI5612002
aI262415764
aI24257941
aI3974551
aI16655768
aI1055147588
aI45753754
aI342926747
aI22649754
aI269329823
aI1380361633
aI18359716
aI12764742
aI56501671
aI567059880
aI14591406
aI2689571741
aI9446832
aI14976584
aI155878985
aI1746361
aI7710812
aI14560830
aI14943818
aI714876350
aI65742271
aI19867072
aI21478126
aI519696630
aI849221
aI14424993
aI42608072
aI15436181
aI74393040
aI1156561
aI2731910610
aI376677845
aI23700950
aI15289237
aI5845242
aI15705567
aI730593
aI97723877
aI14886375
aI26027497
aI2726340074
aI186492395
aI5252591
aI131868148
aI233383413
aI143786262
aI17016314
aI29566460
aI16197120
aI765206
aI52012547
aI171162625
aI200656470
aI14198282
aI1623
aI15705612
aI430712334
aI42345999
aI1381132039
aI2590811666
aI56761262
aI632343
aI114782468
aI43329052
aI9610782
aI3666181
aI81896993
aI15476258
aI14198308
aI108440105
aI23242282
aI17084679
aI188884524
aI17368670
aI18359862
aI15233289
aI7087672
aI93913891
aI16655930
aI55486012
aI14539701
aI15839499
aI15476915
aI315991624
aI16426571
aI15640140
aI15246927
aI395978320
aI18425425
aI73604166
aI13256292
aI28354139
aI992861
aI223454816
aI38250081
aI274703970
aI48178788
aI626173541
aI14788198
aI12166762
aI14591596
aI8791662
aI8734312
aI100247156
aI16849854
aI48375415
aI136426503
aI2164581984
aI3401721466
aI117122683
aI10167932
aI25142909
aI2504452635
aI17671809
aI106473091
aI101590660
aI2741577349
aI136357511
aI9381512
aI894601
aI38708874
aI1422438679
aI14788237
aI66168463
aI14971160
aI44377749
aI13379222
aI14168345
aI21046936
aI49653401
aI14788250
aI95757980
aI15148702
aI35301024
aI431687280
aI618768034
aI18392739
aI67020452
aI14285169
aI1033841
aI7120552
aI15738537
aI23570090
aI24520364
aI19637934
aI17606319
aI54634160
aI18228913
aI2361697974
aI1648311
aI16048671
aI84158139
aI278669495
aI273032894
aI9316032
aI22357697
aI52340418
aI88876740
aI17508038
aI8466962
aI755312329
aI40511180
aI5449422
aI242624207
aI2358191826
aI44986659
aI2982029017
aI15247066
aI53099085
aI22128352
aI16197345
aI12199652
aI12582
aI106634193
aI16688873
aI216049386
aI13182702
aI1255151
aI18294512
aI18130673
aI973317876
aI4168801
aI16131833
aI425895675
aI14067452
aI281353173
aI322777832
aI30634283
aI8169222
aI14124673
aI5908232
aI17133868
aI38927264
aI34626519
aI75533
aI20752143
aI2320606992
aI3085969169
aI233318165
aI24127258
aS'loic'
p20
aI14853923
aI16230180
aI79275814
aI332670761
aI2662377260
aI2395318063
aI16557874
aI2205491
aI17901366
aI79505208
aI384119092
aI716777274
aI6825792
aI14277600
aI10051
aI7415622
aI28878663
aI6474082
aI570304332
aI110418914
aI418911357
aI16394064
aI37889873
aI14501518
aI15216144
aI15116120
aI14133082
aI42843
aI24258396
aI21770554
aI10078
aI6367072
aI389969095
aI467674978
aI162441059
aI15935333
aI794535782
aI21055121
aI3517116732
aI315959146
aI2973050731
aI2434042069
aI2765498229
aI20260729
aI17704826
aI404173119
aI316548988
aI18032510
aI279390084
aI61231283
aI14952328
aI14916588
aI10856332
aI20162446
aI32283629
aI254193860
aI4466581
aI14665369
aI731033
aI763803
aI11118492
aI21407648
aI288332784
aI13215652
aI15181734
aI44063729
aI8038312
aI84289450
aI1550251
aI29271980
aI1549707182
aI321003428
aI1511794608
aI12616
aI9676722
aI196028340
aI14526391
aI17311672
aI796601
aI18130874
aI286934687
aI18294716
aI2059301
aI13313982
aI234757109
aI94173593
aI10178
aI322480068
aI18753482
aI17901515
aI733751245
aI10191
aI12625872
aI3009980371
aI100673492
aI26093525
aI16866297
aI3208690719
aI10202
aI10203
aI171354077
aI113944543
aI487008225
aI21440482
aI20981732
aI175187944
aI14559211
aI9778712
aI16254632
aI94709746
aS'AndrewMerle'
p21
aI3745781
aI18819064
aI18917372
aI420038314
aI273197054
aI37431295
aI763904
aI10242
aI738517787753119744
aI144858114
aI2372347920
aI17868817
aI14231571
aI1059825684
aI356231191
aI27699224
aI21879812
aI14559262
aI15443999
aI20949024
aI2009121
aI87205923
aI8431652
aI85764133
aI17115175
aI12920872
aI15968297
aI7407282
aI244134237
aI43395121
aI122759220
aI7743542
aI10297
aI10298
aI15050812
aI2617157694
aI7660122
aI10305
aI133081159
aI15935561
aI43083
aI22456397
aI10318
aI14534196
aI19048532
aI15640662
aI61417559
aI25372760
aI108243034
aI303569935
aI11151452
aI5772422
aI1653450847
aI133826235
aI9316452
aI20555877
aI21669992
aI22685802
aI10350
aI541042800
aI340371569
aI15837298
aI44378228
aI9152632
aI23898238
aI14687253
aI14559364
aI75913
aI212314252
aI1707321486
aI30345764
aI27306129
aI372910226
aI109146478
aI18983063
aI467118233
aI1058971
aI14788764
aI15902877
aI16656547
aI10856612
aI2426644646
aI19455010
aI6826152
aI18067826
aI20529959
aI20555954
aI22884723
aI2290523166
aI199567542
aI14206665
aI927931
aI16918716
aI2172922045
aI321664669
aI35432643
aI2934286533
aI335358150
aI132619297
aI92121290
aI43643255
aI104048844
aI849304610
aI99428558
aI23709517
aI949596536
aI513812690
aI25372883
aI68167893
aI54329425
aI2966005977
aI14690527
aI7816912
aI11380962
aI471509219
aI349513956
aI15575271
aI155658472
aI25209069
aI14887150
aI14558594
aI3286739185
aI2829002996
aI435149865
aI17344760
aI19081465
aI5744892
aI787054
aI23210238
aI36153601
aI3289000194
aI15752235
aI15476996
aI55355654
aI65054984
aI14166281
aI282265303
aI16492812
aI231549197
aI8566812
aI1026321
aI15182098
aI18772355
aI18557205
aI8956182
aI83673
aI520169752
aI14592281
aI1619631151
aI62466332
aI760230277
aI234367264
aI544103472
aI12621452
aI10823972
aI121678117
aI14690599
aI382380329
aI20654380
aI10541
aI189573424
aI10545
aI3021711667
aI4106551
aI358459706
aI18000187
aI76093
aI14056289
aI18196800
aI24127811
aI14362949
aI16001350
aI72722761
aI15804746
aI2153490764
aI1093797602
aI18295118
aI26420522
aI27830610
aI468232531
aI29602190
aI621783382
aI19016024
aI10588
aI18327902
aI70330720
aI14461282
aI43363
aI2231792348
aI2074981
aI70953319
aI14592360
aI19933545
aI45328746
aI203008363
aI7416172
aI10609
aI8497522
aI68987255
aI30681465
aI16034172
aI246589824
aI10625
aI3549571
aI240855429
aI2888411529
aI2158832011
aI887040397
aI404695440
aI19329432
aI10644
aI251767189
aI17574296
aI17377690
aI16394651
aI13773212
aI48114077
aI20949406
aI12945402
aI18131361
aI14199203
aI12229702
aI16066982
aI1142696359
aI14428584
aI1260366252
aI40315309
aI83634607
aI13609392
aI14363059
aI15673780
aI2332436917
aI22129078
aI4925881
aI666043
aI101099964
aI96643517
aI20698002
aI326134110
aI12510162
aI604940737
aI953358890
aI6236612
aI13272822
aI374155718
aI19558817
aI83372488
aI432875977
aI17002914
aI39659983
aI415934928
aI162114001
aI25668050
aI43952596
aI10711
aI17476056
aI862681
aI16067035
aI18590172
aI22587869
aI1921329630
aI19343841
aI446573026
aI10725
aI2516693984
aI53750248
aI113018620
aI14100972
aI362732626
aI59648495
aI10737
aI38987526
aI16067064
aI2987043321
aI20538699
aI1124861
aI10750
aI576998122
aI12986882
aI14068227
aI1976841
aI2635340887
aI391590317
aI15772176
aI950610450
aI20982291
aI326300078
aI11512342
aI24357399
aI14357895
aI34220569
aI3755125275
aI14255877
aI43553
aI16886307
aI14133800
aI19795341
aI14625322
aI39978274
aI7776812
aI17887666
aI15673902
aI28859485
aI3976210992
aI44280373
aI17508918
aI18950712
aI961081
aI282241594
aI320875068
aI779233860
aI10821
aI12298822
aI4467271
aI14428744
aI43593
aI459680330
aI629844555
aI17902157
aI296135246
aI471607887
aI2431461968
aI17607249
aI320035939
aI418228820
aI2986846805
aI45918807
aI264350296
aI223053583
aI10629562
aI71117407
aI557066849
aI1225960034
aI3451491
aI32385638
aI14239505
aI29290940
aI1172941418
aI13455
aI12626542
aI42150511
aI41003633
aI242821748
aI10136182
aI59513961
aI2160863864
aI14166651
aI10877
aI197962366
aI18688640
aI3514903173
aI26421894
aI10887
aI117254792
aI36865935
aI18098830
aI2016771
aI45394577
aI34905198
aI72198806
aI16189209
aI83405465
aI17312410
aS'ev'
p22
aI18295455
aI153561760
aI14862695
aI22646768
aI10921
aI16231082
aI190065323
aI234105516
aI18393773
aI149236399
aI7514802
aI17246902
aI17312440
aI14166714
aI6531772
aI19835581
aI71576256
aI92547778
aI265755076
aI15444676
aI254257862
aI38939335
aI205651658
aI862921
aI43723
aI7318222
aI15248081
aI226494243
aI13019862
aI627416185
aI10267352
aI16025380
aI18677916
aI1026781
aI65554213
aI22063840
aI6484432
aI830181
aI19606246
aI14363368
aI398502634
aI146778859
aI10990
aI339061487
aI59484912
aI24234569
aI37933503
aI34155255
aI1460087544
aI348367609
aI48638717
aI78326526
aI14710982
aI15936257
aI28814082
aI27077379
aI1097181956
aI174853
aI3054721
aI15916681
aI14592777
aI18230028
aI10169102
aI11381522
aI3713811
aI9235692
aI490908521
aI16888281
aI324479769
aI1689391
aI403581724
aI18131741
aI12266272
aI156550960
aI14363427
aI806431524
aI308092038
aI14199590
aI2730791
aI183118632
aI100805417
aI305963
aI2585733932
aI14234077
aI18852656
aI15038585
aI43592500
aI16576990
aI223764959
aI16788279
aI14166841
aI20818746
aI85864927
aI48853359
aI4893501
aI28846910
aI220900159
aI18930828
aI16233111
aI21867341
aI25307983
aI15916174
aI97561430
aI43863
aI112307032
aI106557950
aI19868507
aI11102
aI115059551
aI92580704
aI29711504
aI125480328
aI15412070
aI810129
aI11113
aI17843620
aI15703186
aI14461813
aI598795218
aI10759032
aI16374932
aI16657274
aI863101
aI14266859
aI8170372
aI15215494
aI764807
aI14625678
aI831981
aI40709008
aI14986129
aI1964157847
aI10791832
aI40315801
aI13642652
aI15850163
aI161509872
aI43943
aI16100264
aI76713
aI293645226
aI14232491
aI75246510
aI15113373
aI3401528542
aI1071777608
aI58569413
aI246328245
aI1478379337
aI7729652
aI1551291
aI558934972
aI11197
aI9444512
aI2948592118
aI376302246
aI157688958
aI114568140
aI285682637
aI290886318
aI319375181
aI94972880
aI11222
aI19016666
aI18263003
aI111440174
aI147860445
aI107260894
aI656143
aI20851681
aI23997410
aI2533764068
aI2730981
aI81571076
aI273383
aI18590697
aI176630762
aI25209835
aI524067966
aI363473905
aI11250
aI18525171
aI33205236
aI17607669
aI15444983
aI122891257
aI17837051
aI91139068
aI3124221
aI14789630
aI275819519
aI54602752
aI92254720
aI21781675
aI25177092
aI793772
aI15805450
aI14461963
aI15707148
aI1668886004
aI10431502
aI9808912
aI6446772
aI21118107
aI2401217558
aI76823
aI2529045528
aI9645082
aI400469021
aI14953502
aI17738785
aI533539874
aI16002085
aI2413243430
aI15510569
aI85863469
aI37202990
aI14305117
aI2645732400
aI136114696
aI26092570
aI72883
aI11545652
aI16133175
aI74886200
aI29121716
aI11323
aI672513
aI896061
aI12201022
aI171551808
aI23833666
aI16624707
aI699463
aI7941192
aI797769
aI94514252
aI16002126
aI3484751
aI56831057
aI11381842
aI903011
aI14494804
aI15479310
aI8006742
aI228437800
aI17945103
aI2829401
aI18033754
aI4832440847
aI5352542
aI113454175
aI7023712
aI14199907
aI14330980
aI355511398
aI6222002
aI2476158056
aI21113961
aI14855274
aI902563687
aI2918134290
aI79226242
aI1059951
aI15608944
aI38055026
aI3011091
aI3418972445
aI11382
aI48442490
aI21736571
aI2508474218
aI17935487
aI32124032
aI33848238
aI432352387
aI13184132
aI2737646726
aI1329704071
aI15445129
aI387886218
aI797835
aI16886925
aI217132175
aI797840
aI3248139409
aI17575058
aI40807571
aI1653714068
aI18590869
aI14298264
aI111619226
aI14163141
aI76963
aI473640100
aI90549413
aI24325291
aI12683122
aI24685742
aI15019184
aI88737651
aI12830
aI94543049
aI15772856
aI57923021
aI742401909156241408
aI14363838
aI149630144
aI76993
aI7646402
aI18013387
aI2243013828
aI588188684
aI1577659598
aI97037519
aI235308920
aI379351587
aI21376213
aI18427096
aI171355355
aI65154270
aI1078340832
aI11489
aI12922082
aI326511843
aI550087908
aI4959461
aI16821478
aI21933287
aI26904444
aI2906991851
aI1908944112
aI222899441
aI468200692
aI14363893
aI1929522426
aI14134524
aI42970367
aI50722668
aI3321091
aI19082500
aI17997483
aI19475719
aI239381768
aI500243671
aI38448399
aI13053202
aI151892237
aI25227822
aI19082518
aI5778712
aI244690201
aI14135855
aI292531484
aI11552
aI1340309136
aI273722663
aI2878057769
aI25111850
aI279686443
aI16493868
aI27324978
aI26975453
aI102116657
aI2957716787
aI42118453
aI2949131574
aI15281463
aI18668767
aI2380213567
aI12987712
aI44353
aI1143778626
aI1041299678
aI6827332
aI224047670
aI798022
aI83799372
aS'mikaelcho'
p23
aI14593359
aI2960721
aI16592210
aI11604
aI15665038
aI37104983
aI71150938
aI22654299
aI372747613
aI23833952
aI14222176
aI241930111
aI542911844
aI765285
aI229027174
aI16985447
aI15183209
aI15360225
aI11628
aI89501037
aI22031726
aI6401392
aI251813096
aI17455195
aI29798974
aI25844969
aI2223451512
aI232294292
aI14429563
aI117222781
aI252882302
aI46985792
aI76852610
aI15293675
aI16362884
aI6761862
aI15674759
aI11656
aI3282021770
aI6140482
aI7548302
aI4468111
aI15379857
aI102542738
aI908631278
aI140717462
aI34713
aI16100760
aI229092761
aI2726504113
aI765340
aI23637405
aI297020830
aI11682
aI11684
aI17051045
aI15379880
aI52774812
aI11690
aI25374123
aI15117740
aI58961325
aI14626224
aI537800113
aI28093874
aI256968606
aI11703
aI85306808
aI368750011
aI2768514492
aI20360637
aI41168321
aI10399172
aI15379912
aI12876
aI14659018
aI35925452
aI92712397
aI20378189
aI634323
aI17444309
aI5778902
aI2698711
aI358231514
aI15805918
aI15878053
aI102346209
aI5025251
aI42872292
aI16690663
aI11752
aI11753
aI21442026
aI357889942
aI137473521
aI19312115
aI11764
aI63211739
aI17706490
aI71731114
aI5025281
aI3299651075
aI930426372
aI238432854
aI14200328
aI50638352
aI83799572
aI3071609018
aI14331417
aI2866458139
aI146877980
aI7025242
aI9317922
aI13774372
aI3008540197
aI15390783
aI11818
aI53390892
aI67644974
aI30354991
aI13593692
aI7134472
aI13545012
aI31158841
aI79539767
aI23791540
aI191802939
aI93892158
aI445361728
aI266186305
aI36314379
aI6941
aI247377477
aI744150240136044544
aI11848
aI1216661431
aI24391244
aI14724685
aI110157069
aI15412816
aI349351507
aI15211790
aI74427990
aI22742969
aI42708570
aI1596173916
aI256093789
aI19853925
aI40611426
aI15511139
aI61911654
aI16395878
aI26226279
aI16002665
aI11882
aI123946225
aI28181012
aI2246258287
aI52637299
aI14069365
aI23047798
aI45673
aI19279480
aI13638932
aI11900
aI1683071
aI45297280
aI15052417
aI16887429
aI26455686
aI4417291
aI29044361
aI13151882
aI15085196
aI2360511
aI10268302
aI20836973
aI7720142
aI14233236
aI199110293
aI243838615
aI22915844
aI97693338
aI546844316
aI11933
aI291647134
aI12912
aI15412900
aI38678182
aI40644263
aI2828273607
aI7483052
aI564944157
aI465120948
aI15494445
aI147523529
aI5385912
aI5812852
aI28978874
aI22326971
aI200583835
aI113323712
aI11969
aI5254851
aI224669380
aI14905974
aI14233286
aI798408
aI21409481
aI15937226
aI185183954
aI295218901
aI10137302
aI2534682328
aI68824793
aI114863834
aI942255835
aI10235612
aI726197352264949760
aI14135007
aI23572192
aI863971
aI29011684
aI243740391
aI896184042
aI12011
aI1894231788
aI55619310
aI820387112
aI14495476
aI383758072
aI5975802
aI12028
aI14397181
aI167030528
aI11841282
aI372059907
aI287387396
aI17968901
aI54570759
aI14228780
aI12562192
aI4992791
aI14298904
aI758165274
aI166473500
aI8079322
aI16252784
aI1306079010
aI9973542
aI196259623
aI185216808
aI179416879
aI2956930864
aI5676102
aI1549184826
aI454569789
aI330379070
aI792563
aI281531849
aI735096642
aI14135108
aI47701302
aI798536
aI12108
aI107327310
aI15707984
aI18132818
aI12116
aI12942
aI16396118
aI18001752
aI1814361
aI3118575452
aI11148602
aI15576928
aI116514107
aI3009556327
aI28513815
aI15085420
aI42105207
aI150351730
aI15642485
aI995191
aI932262548
aI25189695
aI1223470974
aI7024512
aI18591618
aI597597505
aI14430088
aI15708823
aI15716398
aI22152496
aI15937423
aI125644689
aI7319442
aI765845
aI174108566
aI16143675
aI77723
aI14233500
aI14359877
aI21966752
aI125579170
aI12195
aI174534564
aI40742821
aI77716807
aI177226313
aI30705650
aI12206
aI18821039
aI150402218
aI2797491
aI130590127
aI10694582
aI12217
aI2263691198
aI85739509
aI44993
aI3551171
aI1454021
aI7843782
aI15806408
aI1191881
aI5615562
aI6954
aI923185100
aI12546722
aI17838032
aI198324177
aI12243
aI48771029
aI12249
aI116076509
aI52027672
aI45733
aI382819664
aI141045730
aI17149924
aI524396430
aI68333543
aI296103912
aI28979177
aI86683627
aI3142987759
aI110097064
aI74002420
aI2404341
aI295152993
aI14135289
aI10229
aI16658429
aI709429711361814528
aI114853888
aI14856194
aI267366403
aI1726099460
aI246394886
aI175091719
aI621850632
aI22589449
aI52473866
aI611856396
aI3246665741
aI332607502
aI409006765
aI43626512
aI30155011
aI3007262738
aI18630659
aI6336532
aI14299157
aI9809942
aI27827545
aI13809752
aI21334020
aI1501
aI70278490
aI3639301
aI14364705
aI12322
aI21573667
aI779053077076770817
aI19204102
aI2361536552
aI12329
aI138293290
aI141838343
aI157429805
aI1668100142
aI14561327
aI12337
aI12562482
aI1290931
aS'monteiro'
p24
aI14135350
aI33501239
aI2903093305
aI91631675
aI14252752
aI116895805
aI12350
aI17346623
aI14626880
aI970207298
aI36515907
aI17150022
aI61398369
aI10946572
aI71872586
aI1028171
aI1552461
aI7942222
aI18739896
aI376254546
aI1159251
aI7311762
aI12376
aI10825822
aI703339875454619648
aI23081060
aI15261030
aS'sagishrieber'
p25
aI15741036
aI1798261
aI30879855
aI178860144
aI166670451
aI5714622
aI33599609
aI487764093
aI14561410
aI179585831
aI551596169
aI300462219
aI4763791
aI10334352
aI1270491469
aI846780636
aI7975062
aI14692503
aI667803
aI428618437
aI2530554018
aI1487011
aI34123942
aI293384359
aI242004140
aI56051943
aI17641648
aI700593
aI44642482
aI16068787
aI18460854
aI42741944
aI15118521
aI55117855
aI108474556
aI4239551
aI92096544
aI26718402
aI14692547
aI81965252
aI10465482
aI702871974075215872
aI12492
aI3057201358
aI23179472
aI12497
aI798931
aI19312855
aI18624729
aI15937756
aI5479802
aI22393056
aI12514
aI14146929
aI1180867964
aI12522
aI242059303
aI1584574700
aI104607981
aI2149757166
aI12528
aI962801
aI12530
aI12533
aI17674486
aI153923831
aI716747000
aI28422394
aI12539
aI12543
aI10741502
aI43495684
aI12549
aI42802561
aI12552
aI479211786
aI12555
aI11055372
aI930061
aI35309613
aI14299410
aI23212309
aI17281303
aI1611837721
aI4850266394
aI2852911
aI2548707613
aI35696927
aI8630562
aI491231542
aI4436261
aI29798694
aI205336871
aI274018601
aI5976362
aI12587
aI12591
aI19542321
aI2223780146
aI17019188
aI8859962
aI12603
aI550121789
aI3172173877
aI117846337
aI2857397298
aI25178436
aI2011461
aI5943622
aI12615
aI6288662
aI27614604
aI17903946
aI95760717
aI6506232
aI232616676
aI766298
aI24981853
aI14397792
aI14987617
aI1969172834
aI469774692
aI58274150
aI19902826
aI20405650
aI52998511
aI1599091056
aI12657
aI3241750898
aI161427827
aI19018100
aI12661
aI2212802934
aI381628791
aI18002296
aI276028820
aI179581307
aI33239421
aI88682880
aI133049186
aI9056642
aI961589635
aI10891652
aI94810501
aI15020422
aI1075839398
aI14889353
aI46051722
aI379171211
aI28750221
aI34484622
aI1554161048
aI374026642
aI14397843
aI2498212244
aI21967254
aI45463
aI12696
aI30781851
aI298851738
aI770519455
aI498268244
aI700833
aI12707
aI391393700
aI6014732
aI11317672
aI9548202
aI12715
aI27537837
aI246493616
aI633188785
aI17183158
aI15675831
aI292418292
aI12730
aI10203582
aI2717856193
aI198274151
aI12741
aI257498124
aI16983864
aI47362512
aI16789970
aI19509715
aI87175636
aI34091477
aI15610326
aI18362839
aI635353
aI261239261
aI44282335
aI1178907104
aI21148129
aI20689378
aI44694204
aI12773
aI63549929
aI521903527
aI1333998060
aI379400685
aI29503983
aI14458280
aI222546003
aI104083
aI6042102
aI635383
aI15446520
aI14627322
aI18067963
aI442446332
aI79114751
aI12595712
aI112636672
aI15446531
aI722157191579451392
aI15282695
aI20361737
aI541611490
aI16320459
aI52245007
aI210383376
aI26784273
aI6828562
aI15839763
aI12820
aI1593946645
aI15446552
aI68170267
aI71905822
aI19561116
aI45603
aI15358083
aI1923958442
aI31175208
aI41092386
aI125514287
aI963121
aI28171699
aI7549492
aI250316894
aI12854
aI234074680
aI26948155
aI147927614
aI1153529186
aI8729152
aI60404290
aI1504011
aI204444379
aI2598285895
aI287781448
aI72069706
aI15785399
aI36483660
aI18291042
aI2274061
aI355906128
aI317300152
aI11317842
aI842642004
aI126628622
aI36155990
aI2157550843
aI17216088
aI283946299
aI15151706
aI266809947
aI14660188
aI344896093
aI15282783
aI136688224
aI9286242
aI12902
aI772321029611921408
aI18035304
aI25637481
aI16003691
aI12908
aI1122906733
aI19575406
aI21541487
aI10826352
aI21967473
aI12914
aI12916
aI78453
aI19018359
aI41366136
aI217952889
aI24266072
aI126169731
aI6894212
aI98972293
aI5943942
aI16953991
aI7647882
aI337736471
aI103920270
aI209203858
aI12947
aI20334731
aI635543
aI2159
aI19706527
aI10209392
aI554119845
aI191607464
aI44999727
aI14491079
aI38318764
aI67220142
aI1176842928
aI17543859
aI17052345
aI4714672827
aI47067837
aI7189182
aI14529220
aI2241221
aI310539041
aI10171082
aI92025547
aI21443276
aI4829901
aI963281
aI15545124
aI1429025502
aI3169923808
aI897761
aI9655652
aI13029
aI42447592
aI20755177
aI18854635
aI68432620
aI14463726
aI13040
aI13046
aI1352971002
aI36549371
aI794069
aI393097984
aI13057
aI16679449
aI29995782
aI668423
aI18559753
aI18756362
aI19280653
aI21771022
aI22328080
aI15381265
aI701203
aI130118446
aI307569852
aI203633437
aI20263710
aI11907872
aI27046692
aI13398422
aI13098
aI10138412
aI163951409
aI21246770
aI18880260
aI40448823
aI7385912
aI668473
aI191726175
aI13116
aI13117
aI250884927
aI22677393
aI15818208
aI239618187
aI13124
aI14627653
aI868113889
aI246592328
aI17123468
aI376517450
aS'andybudd'
p26
aI15184716
aI52474702
aI22590288
aI6566712
aI363606866
aI385692499
aI1308603223
aI16331614
aI996191
aI122860384
aI15381346
aI15446067
aI11580262
aI5911402
aI17118060
aI45933
aI75051887
aI24949617
aI809153395
aI1520501
aI13174
aI17445752
aI23436318
aI7517052
aI35443
aI22349973
aI186332032
aI1061761
aI14529411
aI15446918
aI13192
aI7091082
aI21197634
aI180663183
aI8816792
aI15568945
aI14316355
aI2639049620
aI6304662
aI15905688
aI963481
aI7844762
aI799645
aI62924820
aI1182675871
aI4435227552
aI2451223458
aS'sarahtavel'
p27
aI14496676
aI17478565
aI19805098
aI13227
aI28586924
aI1264874058
aI283259822
aI15485085
aI2864051
aI132232120
aI72463291
aI6271932
aI1379185482
aI50279361
aI11990002
aI14595011
aI15971270
aI46023
aI826510740
aI13263
aI3871771
aI15381458
aI13054932
aI13269
aI132199382
aI82713557
aI14693339
aI1614665635
aI20427743
aI105690080
aI14363167
aI1422311
aI14496744
aI2377391612
aI799722
aI35009515
aI13294
aI46063
aI41792496
aI78833
aI3912691
aI41199332
aI45855734
aI15447034
aI15676413
aI228504577
aI31503363
aI633287684
aI19346439
aI181110956
aI631125002
aI14562315
aI13324
aI17839117
aI3716111
aI13743122
aI14496787
aI53840075
aI121156632
aI13337
aI1096157359
aI20689948
aI13341
aI535901214
aI59094050
aI13348
aI13349
aI10138662
aI154567042
aI15381545
aI1717291
aI2569261
aI80884783
aI26915890
aI13364
aI6468662
aI26162234
aI18691131
aI865514556
aI1163544757
aI16233537
aI109796500
aI767043
aI20591684
aI322253898
aI127382605
aI220137029
aI219029005
aI13392
aI3030922321
aI43758674
aI32388179
aI7615572
aI21902421
aI14791769
aI22230109
aI13406
aI13407
aI13410
aI13413
aI37048677
aI15036219
aI56079466
aI13420
aI54730258
aI146846831
aI41497712
aI3102651506
aI39040115
aI7555262
aI22790881
aI319435900
aI31536253
aI19543168
aI13444
aI7779462
aI570503
aI20690056
aI9384812
aI186496138
aI3086121103
aI46223
aI18560146
aI611773
aI13461
aI5091661
aI91362435
aI23573663
aI10761382
aI153285489
aI15119529
aI200783020
aI16364717
aI5649582
aI14234801
aI6534322
aI22754163
aI7386292
aI15654430
aI540685494
aI785415879957831680
aI14070968
aI2724694218
aI226342079
aI15807682
aI24032451
aI532820854
aI1979591
aI13512
aI52737225
aI6927562
aI60929227
aI14731797
aI1245747631
aI20919505
aI14693588
aI13527
aI368522457
aI21771482
aI13532
aI34944221
aI9876702
aI1469101279
aI977286368
aI52901089
aI11252962
aI48136745
aI13544
aI8008572
aI369833194
aI288208107
aI724473
aI17511661
aI14234493
aI14103793
aI16725234
aI229848310
aI15064617
aI304952569
aI76297468
aI37631229
aI13567
aI168203608
aI18822403
aI6403332
aI931691
aI6337802
aI996621
aI426063119
aI36686040
aI608473
aI2232300824
aI19510553
aI467252507
aI14250885
aI2267
aI13645092
aI64828710
aI24113
aI546097372
aI13610
aI278988015
aI14824752
aI21312817
aI78853426
aI13621
aI15119670
aI294073655
aI44315960
aI14103865
aI25544927
aI15250748
aI252622141
aI941621
aI2351805762
aI898371
aI1586501
aI4831176346
aI15119687
aI20728652
aI1659647306
aI19313995
aI114734413
aI8271182
aI16823631
aI13650
aI225949012
aI13481302
aI492451159
aI714688470
aI59323739
aI7845212
aI55795258
aI1112651102
aI19379551
aI19576161
aI13666
aI10466662
aI14464360
aI279944764
aI560444778
aI233818343
aI4207981
aI13679
aI76821872
aI10007922
aI668563
aI7746932
aI19952903
aI16004473
aI11122042
aI7222652
aI28161405
aI14424955
aI3302208898
aI15938947
aI139638149
aI123680134
aI33529409
aI1700803976
aI240858507
aI34977164
aI94516120
aI1389971
aI1676916116
aI541832597
aI69481878
aI3374231
aI37237658
aI711204649416654848
aI2438561
aI13731
aI5911972
aI31054019
aI16692647
aI25179560
aI16692651
aI2165552557
aI15774621
aI1962754693
aI92059059
aI2329294262
aI15414713
aI8238522
aI38095093
aI525579713
aI1267873218
aI168670659
aI86390214
aI100316615
aI54638025
aI83047883
aI44545484
aI210056653
aI3339171
aI17912450
aI17446359
aI39433688
aI435434971
aI12891612
aI104543711
aI14595552
aI126399969
aI42251746
aI755367
aI9287142
aI9483752
aI2635241
aI1253014562
aI1598698987
aI1807371
aI7845362
aI15054324
aI14595574
aI1338324476
aI216380330
aI1853470208
aI97760769
aI12203522
aI21050883
aI56800772
aI716577519785394176
aI377652581
aI52442028
aI35233367
aI324122831
aI11613712
aI1979921
aI30815764
aI15414807
aI11089432
aI27735577
aI130496027
aI15513116
aI618542623
aI14235168
aI7010972
aI19936803
aI73184805
aI2715530790
aI588428840
aI141833770
aI9451052
aI1889089069
aI6370862
aI833071
aI19706271
aI122959413
aI4889081536
aI767550
aI19904067
aI4906367219
aI971454026
aI28636087
aI126760525
aI14141709
aI780562183
aI734803
aI2293315159
aI167193309
aI154580569
aI1343665754
aI8435292
aI14956125
aI3030376037
aI19084896
aI52344417
aI1685091
aI12039782
aI87111271
aI17839720
aI2274921
aI6043242
aS'natekontny'
p28
aI339261041
aI854291
aI1160821
aI15742583
aI7419512
aI29875818
aI246387455
aI18036353
aI4404161
aI5748362
aI14136972
aI6124482
aI21149327
aS'DigitAlison'
p29
aI30563975
aI29079189
aI103691927
aI2584131224
aI2569881
aI19543706
aI28456605
aI293555918
aI275007771
aI1092138660
aI14136262
aI46479015
aI249639024
aI13481642
aI3065951175
aI14681621
aI2919675566
aI4634291
aI8074932
aI157038262
aI1586871
aI3094201
aI1961113274
aI13612732
aI166682229
aI14661313
aI1406613187
aI44971719
aI1529722572
aI1128141
aI12138192
aI125253329
aI6272722
aI767700
aI326285754
aI16599332
aI14742479
aI19314398
aI1284421346
aI16277115
aI29790817
aI169099442
aI104623
aI7139732
aI21804779
aI16195197
aI336115444
aI50280181
aI21051129
aI16267003
aI18069244
aI23709994
aI56768257
aI14268164
aI14923525
aI17069015
aI2223585036
aI22273667
aI145569558
aI23869207
aI20875567
aI14497565
aI59225887
aI14497568
aI73414434
aI14989091
aI96024356
aI54711914
aI12400422
aI444135146
aI14071595
aI15906604
aI54277937
aI11777842
aI14923571
aI1632801
aI354868873
aI81278776
aI15447867
aI46151484
aI110933821
aI18036542
aI800575
aI113548905
aI14956354
aI84860555
aI15939396
aI135018310
aI87537480
aI400209742
aI23115599
aI40070041
aI44681528
aI4895175651
aI2779389582
aI294631254
aI16430935
aI9779032
aI211564378
aI280649359
aI50444125
aI3192600414
aI18233184
aI17872737
aI254228322
aI17905508
aI174533274
aI383629160
aI15841130
aI52344683
aI117880684
aI1455981
aI85964654
aI1980271
aI20690800
aI14595955
aI84326261
aI9445012
aI6731642
aI31078267
aI10519
aI115947391
aI45569415
aI14169988
aI1148598151
aI6141832
aI15710090
aI276576139
aI2103081
aI3355326352
aI191510420
aI46315413
aI45528984
aI132690927
aI15251361
aI1685411
aI767909
aI19773353
aI14432170
aI309213101
aI25933742
aI2373551
aI125122481
aI14365202
aI636853
aI57948087
aI342079417
aI10258762
aI15081120
aI33404866
aI4503491
aI35862470
aI350042055
aI54245324
aI14104525
aI122763520
aI740505552
aI354990034
aI171325395
aI19925326
aI267794397
aI3167401950
aI23115743
aI127900561
aI15010128
aI16884623
aI12924902
aI215136231
aI1276295144
aI120550396
aI1721677802
aI47083
aI6797292
aI20133869
aI202756449
aI11302402
aI147666931
aI11024372
aI9615352
aI37824501
aI2170894332
aI368467626
aI14858238
aI158414847
aI25680350
aI13957122
aI14858243
aI740258693917376512
aI14267393
aI14628872
aI55588874
aI1095691
aI20133900
aI636943
aI786577424
aI154765656
aI15015598
aI7649302
aI14267396
aI77336928
aI112713391
aI715110428
aI6174752
aI768033
aI1156200486
aI14727207
aI1321252904
aI16529449
aI99792938
aI149730311
aI14628909
aI754825266
aI1281341492
aI14747998
aI22634164
aI47003706
aI189184059
aI16988220
aI80494236
aI10532932
aI65871542
aI7649352
aI9912742
aI9177442
aI2369467405
aI7452752
aI216348755
aI1652821
aI2963185337
aI14071896
aI1488630799
aI14202972
aI995591
aI27965538
aI14245563
aI20629862
aI15605823
aI1075656810
aI142588011
aI58800236
aI1751151
aI767319531253538816
aI15677553
aI14480403
aI15906933
aI30783608
aI27998331
aI63027324
aI17746282
aI33098821
aI212711552
aI115030146
aI12385892
aI28632036
aI295198402
aI30979096
aI1194131
aI14497940
aI26163349
aI15284375
aI8468632
aI588400012
aI29291546
aI791296159
aI1206051648
aI9648292
aI14503
aI3242041
aI48428463
aI2734251
aI13875372
aI38975663
aI23804082
aI2361979572
aI379271348
aI12629022
aI242235575
aI37664952
aI246713722
aI1722741
aI72686822
aI14465220
aI768197
aI1426962631
aI1915081
aI5355722
aI224202618
aI1957581
aI14813560
aI943503576
aI26637348
aI509360346
aI132069595
aI14399709
aI360921311
aI17929934
aI7223522
aS'micah'
p30
aI175322150
aI5814502
aI21674219
aI280836333
aI456866030
aI18462961
aI126367986
aI1104787699
aI18243089
aI609106166
aI19544311
aI16010637
aI2616286932
aI227477887
aI15808765
aI884301
aI21444864
aI190874822
aI13312452
aI15829377
aI13416712
aI61618441
aI21379338
aI19708171
aI16365839
aI435887310
aI6708952
aI27923596
aI14382127
aI226736414
aI2306902405
aI768288
aI16791841
aI12040482
aI2776643876
aI8501542
aI70289799
aI40253740
aI1049152604
aI14104884
aI15081182
aI7027002
aI140228923
aI100284732
aI14137664
aI4077891
aI382253381
aI15644999
aI340953987
aI199168582
aI29342035
aI6633812
aI16824661
aI223197526
aI26360152
aI54278489
aI260116832
aI2505051
aI690083
aI21875088
aI31126587
aI1390951
aI15939946
aI15687399
aI5552492
aI81982525
aI43026835
aI1784181
aI1020639606
aI1701296504
aI16202106
aI11385212
aI3343649173
aI81377664
aI783424
aI2294954370
aI59093441
aI2567551369
aI26327434
aI2204350862
aI15088016
aI2455714194
aI8337812
aI17873304
aI91896217
aI23628186
aI1300674974
aI16365983
aI37697952
aI245882608
aI15251874
aI10089542
aI678083
aI14763
aI11385262
aI15645104
aI7354802
aI14498231
aI39696825
aI8632762
aI498682271
aI480244810
aI31308222
aI14072256
aI7724602
aI173940470
aI35233
aI1389501
aI16300490
aI8632782
aI42923085
aI15044502
aI17512915
aI10697172
aI7944662
aI6326692
aI12597722
aI14839862
aI17653498
aI1130412510
aI44906975
aI2693511649
aI6568422
aI100448744
aI1882601
aI745213
aI365696011
aI20691443
aI24328692
aI2816029780
aI1138431
aI183876092
aI14924697
aI178932440
aI25672193
aI20396546
aI47757829
aI454244871
aI5650952
aI25758124
aI404535818
aI25130071
aI92748300
aI15818498
aI247148003
aI8069572
aI1882641
aI14147331
aI26544558
aS'ToddBrison'
p31
aI1683190873
aI14420399
aI14301724
aI14268957
aI568838245
aI8501792
aI8600102
aI19380775
aI15153704
aI3258921
aI380189226
aI3291691
aI16235052
aI14858798
aI1882671
aI51100208
aI20888115
aI5388852
aI10336822
aI25878281
aI11680312
aI3101243961
aI14365791
aI11582012
aI64873
aI2996801
aI19914507
aI14611553
aI151304776
aI14137929
aI12466762
aI316619339
aI17644108
aI183777869
aI90258002
aI310655571
aI795825354946543617
aI13351512
aI637533
aI9189982
aI800076901
aI343226977
aI502213845
aI17861051
aI3325171
aI14334568
aI383142332
aI9550442
aI577124971
aI26688109
aI11418222
aI6044272
aI14924402
aI53010195
aI3005135476
aI899701
aI291617398
aI19002473
aI768632
aI13744762
aI122927740
aI88423039
aI34552448
aI1424001
aI7191172
aI637573
aI21285313
aI26065546
aI2678551
aI24787598
aI32224365
aI1078682960
aI2734930578
aI3249453715
aI41335446
aI24951447
aI37075610
aI110687343
aI17020509
aI15415967
aI126139041
aI35830434
aI1423489700
aI14236327
aI2700411
aI6437552
aI14432945
aI79018674
aI15153843
aI11745972
aI17611446
aI16923319
aI10471882
aI1975499454
aI223328960
aI20815648
aI14957252
aI55458502
aI1260231
aI613235400
aI700365513
aI20953802
aI7474742
aI364296908
aI133521186
aI604355278
aI69515984
aI208845521
aI5356242
aI52556921
aI401530660
aI14338511
aI2601630428
aI15776477
aI7518942
aI2858531551
aI19610339
aI16431844
aI7823142
aI3841309414
aI116769969
aI3030465258
aI99695339
aI9714412
aI211106542
aI735983
aI227540483
aI277012264
aI21173435
aI1981171
aI80722677
aI14957302
aI362691320
aI1293051
aI7682812
aI1325604650
aI50321223
aI16331904
aI225261033
aI47430404
aI34388741
aI33962758
aI17087243
aI768783
aI1093221138
aI126448771
aI14334743
aI21214340
aI10959642
aI15133
aI14498597
aI14859046
aI16178993
aI15518172
aI1008384817
aI30506319
aI16468446
aI1127267126
aI229946505
aI1981241
aI21150522
aI27310909
aI203307838
aI80703
aI14957377
aI48053058
aI15776579
aI60202806
aI2915810118
aI23640904
aI311671628
aI14203726
aI4469439315
aI768856
aI601109647
aI53437510
aI16202589
aI1528675166
aI31046495
aI120961888
aI18758501
aI9583462
aI34028391
aI13581162
aI75467239
aI1249899666
aI15108584
aI83998973
aI26229620
aI28490614
aI14236538
aI133806972
aI319404929
aI19479427
aI18070405
aI6011782
aI2800521
aI452529247
aI16104331
aI133912719
aI42810253
aI170478062
aI16432022
aI7945112
aI14334873
aI238599066
aI2254388124
aI52378533
aI17578918
aI210746279
aI118209449
aI63814570
aI37895085
aI360707229
aI18496432
aI277855154
aI14367669
aI23145560
aI197180345
aI20069306
aI240892859
aI592780926
aI41860032
aI3226561
aI5848002
aI134822851
aI70826950
aI2997828551
aI15180311
aI302234570
aI1297529803
aI5520332
aI19872718
aI56212431
aI2692
aI2374611
aI14933838
aI29604826
aI2313894878
aI18554704
aI225983458
aI562674659
aI24298886
aI19119079
aI14728168
aI76561387
aI417184749
aI237845487
aI7257072
aI16343457
aI73142233
aI74791923
aI6503412
aI21601628
aI5454842
aI1700896063
aI22658049
aI9550852
aI19905542
aI23411720
aI219247788
aI14334986
aI2896116747
aI17611790
aI14367761
aI965651
aI25148436
aI107822103
aI8884462
aI118415194
aI25803806
aI18955295
aI60163
aI56572962
aI33975799
aI15154217
aI115686442
aI179997191
aI829373486
aI25741221
aI300242761
aI834611
aI1059273780
aI59292735
aI14114656
aI23634391
aI16301128
aI60177481
aI15678539
aI2874653777
aI95758802
aI39952227
aI483966036
aI18791509
aI5684312
aI67779676
aI1883231
aI3793960033
aI20495458
aI11123812
aI14957670
aI467844200
aI17869952
aI31204696
aI8830062
aI2389458031
aI4116625874
aS'jaltucher'
p32
aI598788627
aI122631196
aI48512118
aI211089143
aI20692088
aI16465018
aI668863
aI359414908
aI16628861
aI50055701
aI9976962
aI4874091
aI239639973
aI52247685
aI48263
aI38190216
aI24329353
aI9125002
aI1457291
aI18300046
aI40802234
aI419380371
aI26786964
aI22658197
aI184269974
aI29670551
aI96812184
aI12008602
aI703643
aI107104794
aI14892191
aI708721824
aI1666038950
aI43596967
aI90193064
aI4122000553
aI14267591
aI12369072
aI2369797302
aI867511
aI14335160
aI18463930
aI23805118
aI168606911
aI1108982977
aI716851153
aI93174979
aI10239172
aI314575393
aI59487436
aI801995
aI5455052
aI34553038
aI17972431
aI19315920
aI15809746
aI31407315
aI16301273
aI15824079
aI63716574
aI16137442
aI736483
aI20462827
aI78429421
aI32315020
aI3408346353
aI419970291
aI8880932
aI27802872
aI77380858
aI141955451
aI15842558
aI472129408
aI17644802
aI20209537
aI318127373
aI2493627662
aI146703
aI362986770
aI18038038
aI1621271
aI83115289
aI29287543
aI14892316
aI14400797
aI13712672
aI15842594
aI126795043
aI1555751
aI5815592
aI9680092
aI6995242
aI113963
aI15482156
aI638253
aI17579312
aI26000689
aI2616900914
aI1752371
aI146733
aI131906870
aI15285559
aI57687353
aI48443
aI15351100
aI3916184893
aI22887743
aI20069698
aI52346179
aI388516406
aI41139526
aI2669821256
aI14368074
aI14892363
aI6896972
aI46120269
aI9059662
aI16899981
aI2376645968
aI1162165585
aI7978322
aI14859608
aI48473
aI150817338
aI113130846
aI1973042528
aI778911074
aI14158395
aI14335332
aI44995454
aI219102568
aI5415802
aI27407592
aI638323
aI16825716
aI14073206
aI1064311
aI262520184
aI22121023
aI46153086
aI703873
aI135183746
aI30209259
aI17087876
aI523091335
aI18075094
aI1415691660
aI33045901
aI15070445
aI14940197
aI43944515
aI17080217
aI30260634
aI42909085
aI18496928
aI2694200737
aI293879202
aI68795811
aI418692516
aI3659709861
aI17579431
aI17218986
aI161679943
aI1904551
aI18857390
aI299810223
aI1396857607
aI2175188401
aI80002483
aI120470965
aI126401975
aI18455900
aI14695865
aI12795322
aI27082172
aI2307190704
aI17003765
aI870137280
aI17702816
aI9321922
aI153793782
aI8076742
aI90559958
aI14171594
aI605643
aI25574860
aI24034768
aI14761426
aI1531811
aI8797652
aI47168983
aI7224792
aI794532
aI19742171
aI1340554716
aI15416797
aI15744478
aI1387806175
aI1311194592
aI53951974
aI55918055
aI22167016
aI1457641
aI6209002
aI745192940
aI15813203
aI5881332
aI268549622
aI1687031
aI16891384
aI18038269
aS'saranormous'
p33
aI52837888
aI23557376
aI14695938
aI14114731
aI6635012
aI1861893637
aI685313
aI16367116
aI2735631
aI23051792
aI14223960
aI14073364
aI6856622
aI53624343
aI41565722
aI83997957
aI14630432
aI17972769
aI9420322
aI21351003
aI131841572
aI10370602
aI376363
aI17874476
aI406502960
aI14335537
aI1093090866
aI21773876
aI3554871
aI5520952
aI84451252
aI199441979
aI26590781
aI319856565
aI638533
aI6897222
aI18202183
aI14794313
aI24503
aI16399949
aI325762640
aI207044178
aI22756947
aI32947797
aI13418072
aI87866969
aI6405722
aI769627
aI145441907
aI71409594
aI17304165
aI7356002
aI51357842
aI185908840
aI15613546
aI474955371
aI58834541
aI11320942
aI140951152
aI16498291
aI378800745
aI3171466873
aI32095866
aI14622655
aI13680252
aI202391170
aI20056683
aI32751236
aI17219205
aI44967903
aI334118538
aI263995019
aI20397708
aI117366722
aI674413
aI7618192
aI743816850
aI14204565
aI16023
aI32718488
aI14835652
aI19775131
aI14466716
aI60513
aI11288222
aI638623
aI240533152
aI14958241
aI8732322
aI37121870
aI16170662
aI15515303
aI34717352
aI16043
aI15613612
aI1696448174
aI362725041
aI19218098
aI21282483
aI7716532
aI486784693
aI566967995
aI835261
aI2703041
aI385793731
aI17374599
aI5062341
aI17481417
aI13530402
aI14204623
aI9912022
aI12074712
aI30949085
aI100810464
aI20604345
aI14827235
aI255803108
aI1581362257
aI21536721
aI67026664
aI72597225
aI29507306
aI42614508
aI67321581
aI12631792
aI18358227
aI43532023
aI17097786
aI182370042
aI36749051
aI38584060
aI36093693
aI33865471
aI11419392
aI2548940546
aI18806059
aI367869701
aI48903
aI56770312
aI20291192
aI29769484
aI221527821
aI38191181
aI2876355885
aI896384784
aI124763921
aI1060912914
aI140033814
aI17383191
aI20397848
aI15220505
aI39141147
aI728938712
aI6183972
aI304067888
aI16989987
aI12009252
aI256261925
aI228671273
aI20835667
aI14303020
aI535543599
aI18107016
aI45334322
aI3526489395
aI638773
aI125878070
aI671543
aI74628920
aI16564026
aI17219387
aI182533948
aI14860093
aI14466878
aI15220543
aI42417984
aI16531265
aI9715522
aI14761795
aI17626422
aI16891723
aI14958412
aI13735382
aI1068547920
aI14841144
aI17874770
aI20758355
aI7913302
aI13025112
aI385680001
aI19352207
aI10478662
aI2146141
aI14981881
aI361643871
aI9551712
aI17350497
aI24376635
aI28098405
aI13254502
aI425901928
aI13811562
aI7946092
aI2801521
aI263503
aI47598227
aI1294621
aI16170869
aI14335863
aI17350520
aI19414905
aI22600027
aI19690815
aI172914061
aI2099861
aI769920
aI380616577
aI60604290
aI7520132
aI16263
aI253214601
aI17088394
aI53297035
aI1438651
aI119700784
aI17973137
aI18920771
aI295681941
aI59326358
aI968881477
aI5685152
aI24952738
aI16957350
aI220872617
aI11911082
aI1455431
aI9813932
aI19808176
aI24756147
aI136200118
aI216776631
aI8372152
aI31670205
aI106086334
aI49093
aI21512136
aI8994762
aI1163211
aI595771343
aI15220688
aI14303186
aI3751891
aI770005
aI7880662
aI59129819
aI1591603471
aI316096481
aI91144162
aI322658299
aI204901030
aI17022950
aI1560821737
aI15089643
aI17837248
aI17151314
aI1539225276
aI15220720
aI109461489
aI15889747
aI12926072
aI14434298
aI288981847
aI2263105532
aI756394
aI159367166
aI720905188492623872
aI715218689751064576
aI14303235
aI783663109
aI722431339639808001
aI725724348309463042
aI3005464590
aI31178767
aI16403
aI10641412
aI14303261
aI17547296
aI2408481
aI62332934
aI1315225639
aI18300968
aI3416997931
aI8634412
aI300859438
aI121091421
aI285917234
aI637091892
aI19185718
aI20070456
aI387825721
aI37593098
aI6668352
aI756381396
aI5921852
aI308245858
aI489892067
aI20701197
aI8241232
aI2835315364
aI297844819
aI119914580
aI15341735
aI19087450
aI9125982
aI30556255
aI25739361
aI16269410
aI53297251
aI96944232
aI14205033
aI345673106
aI267614384
aI3436494958
aI178077812
aI15188085
aI14270583
aI200163448
aI220348539
aI24756351
aI15876224
aI134955137
aI2872852610
aI14827652
aI563101830
aI29231809
aI39993480
aI14073993
aI1139753100
aI212198071
aI17645718
aI25542808
aI6504602
aI84328604
aI17088669
aI46940318
aI145899680
aI3686561
aI199016610
aI179519653
aI2358198440
aI23937194
aI22443378
aI3784881
aI16957618
aI42877108
aI29368350
aI1183006902
aI13058232
aI23543993
aI14565566
aI28459206
aI47580370
aI49353
aI162611402
aI716782038255185920
aI10109132
aI14106829
aI2403025102
aI93962449
aI123355349
aI19087575
aI1163481
aI18052474
aI80134366
aI216187106
aI2791751907
aI821608676
aI2347319526
aI18090705
aI216580328
aI237322475
aI97239278
aI248987887
aI247415025
aI726712562
aI2891890931
aI66666740
aI3493261
aI68043001
aI15122682
aI10109182
aI2508966613
aI180437252
aI11517432
aI29442313
aI15188235
aI14942167
aI542629933
aI310722833
aI5849362
aI365510933
aI2181054746
aI730644764
aI19153181
aI1367884062
aI23098757
aI167952672
aI14475312
aI53264674
aI2857386275
aI12861732
aI7386502
aI46088486
aI17375281
aI17532098
aI18989355
aI23949603
aI213139758
aI2781
aI9158962
aI147300403
aI2478883124
aI29089844
aI8470842
aI16337631
aI6745922
aI256000318
aI32751935
aI811909440
aI253182274
aI82243
aI15089988
aI212255045
aI264624695
aI2688294096
aI315291021
aI33314940
aI839958866
aI325566803
aI7913812
aI66077013
aI15745368
aI182960477
aI14664030
aI26100063
aI42746209
aI28262754
aI43562385
aI10575932
aI2450637164
aI24035693
aI2170941
aI258883953
aI20268299
aI300955028
aI747782522
aI37806143
aI2604024188
aI42910077
aI17547646
aI3311976831
aI16957824
aI15450497
aI43008388
aI720179626266341376
aI17973640
aI17397143
aI159269260
aI266977680
aI49553
aI14172562
aI357390496
aI2703771
aI27148700
aI17154461
aI126173599
aI3236217248
aI14795171
aI5652902
aI48218536
aI1304278428
aI15810986
aI530931783
aI46153959
aI14825744
aI11059632
aI43794866
aI25805235
aI6046132
aI269566390
aI349708361
aI8228052
aI15418228
aI15843770
aI1589691
aI9650622
aI466247755
aI12042692
aI54477253
aI2325984673
aI770505
aI123767543
aI104612300
aI51462606
aI11616722
aI17298852
aI8798682
aI99571194
aI102894330
aI61260256
aI1720801
aI4383631
aI15857062
aI14467559
aI2264926972
aI2924134890
aI17577383
aI11387372
aI9134162
aI66682794
aI6865392
aI770545
aI748929522
aI22757876
aI445170166
aI2866713509
aI6046202
aI15614459
aI16893
aI82433
aI14074371
aI39469575
aI2212361
aI62177803
aI20759052
aI6046222
aI97007021
aI3162641
aI176222147
aI901651
aI19284500
aI34619925
aI18071073
aI5751322
aI2671131
aI9224732
aI385960709
aI1032741
aI240731136
aI2693513767
aI317801000
aI25444905
aI20759082
aI177507079
aI22869426
aI16564786
aI5063221
aI24938383
aI369063309
aI1170686521
aI4506171
aI16892481
aI101728834
aI124111627
aI14828103
aI2303771208
aI14402121
aI104789431
aI36244237
aI48546384
aI14402132
aI22464371
aI161071708
aI12662202
aI714261086
aI30098016
aI156025441
aI11846242
aI82533
aI15909478
aI604324455
aI780472459749314560
aS'jmspool'
p34
aI8391442
aI11879022
aI41960048
aI92095091
aI22672830
aI15516281
aI18137723
aI9814652
aI30589566
aI19186303
aI6780352
aI299582083
aI14336645
aI337035910
aI770702
aI639633
aI89732547
aI14467732
aI19939989
aI15188631
aI184304280
aI1295001
aI639643
aI19514014
aI21676703
aI30199939
aI326255267
aI18498215
aI20531996
aI31638187
aI15876780
aI3916461
aI25084590
aI3062383280
aI136364721
aI16302770
aI31318131
aI19743413
aI89244342
aI3122699363
aI374336745
aI70131863
aI1065661
aI22279099
aI16925375
aI2933441
aI23872194
aI19120837
aI770759
aI18629321
aI384639095
aI15680204
aI17992482
aI61896141
aI42910265
aI3255909793
aI4036678828
aI483521999
aI127582945
aI33997538
aI2048741
aI21676774
aI1262311
aI16696041
aI17926951
aI116409070
aI19270440
aI25823285
aI505070325
aI15778550
aI179325737
aI10044152
aI3359481
aI39764731
aI15581948
aI180494464
aI1854401
aI14207787
aI457209302
aI3425031
aI24003338
aI6624822
aI6603532
aI49103632
aI49657304
aI68862738
aI41141015
aS'jjg'
p35
aI934681
aI88359706
aI1228325660
aI252330781
aI15041800
aI965131
aI3041674017
aI1917731
aI2359542565
aI20169510
aI3949351
aI1395606314
aI433111852
aI734903
aI1553777455
aI17646385
aI19153715
aI68567860
aS'Alltopstartups'
p36
aI70796089
aI49890106
aI12960572
aI6931262
aI8962882
aI15123270
aI281359841
aI217432904
aI1075514167
aI601932622
aI639823
aI6243152
aI163332945
aI6112082
aI205931347
aI6636372
aI4080471
aI293815131
aI851428189
aI19022686
aI607073
aI5260131
aI2215461732
aI6419942
aI262456166
aI14173031
aI13667132
aI15647595
aI216843116
aI49005422
aI20726639
aI16663408
aI43795313
aI15450996
aI8784702
aI3942597494
aI2271884777
aI949404536
aI3075692209
aI50043
aI126731132
aI4375421
aI26599573
aI14631808
aI248988547
aI698056245379362816
aI14992263
aI88261512
aI9487242
aI1328011
aI31310732
aI309183373
aI4048438159
aI75875216
aI114869137
aI24167314
aI15025044
aI14435221
aI2308916118
aI17314628
aI5905772
aI7938202
aI172737439
aI14402471
aS'Caterina'
p37
aI164709290
aI455525291
aI15534471
aI14074803
aI18367412
aI76956597
aI75219896
aI18858937
aI23708602
aI26035132
aI5868362
aI5129151
aI803777
aI48415682
aI6341572
aI33863158
aI14828486
aI8276812
aI2437496779
aI15993677
aI10798032
aI24691665
aI19907538
aI9880532
aI21447641
aI734463144
aI1210598364
aI14140382
aI21806813
aI308921323
aI1639629804
aI607213
aI51918333
aI46154736
aI385065511
aI158796628
aI95536123
aI21709823
aI3324920832
aI25084929
aI18793475
aI103760901
aI242041864
aI18842214
aI22397966
aI18170896
aI13798232
aI1105212931
aI611613
aI157016238
aI14828567
aI7900362
aI14205980
aI14566429
aI17843236
aI11781162
aI2049071
aI20431922
aI38426909
aI947721
aI17417272
aI10077242
aI2890140511
aI871547965
aI197182526
aI45139007
aI1074480192
aI28230723
aI86885447
aI14206027
aI6112332
aI17515599
aI266060880
aI17908817
aI32523346
aI17482835
aI14304340
aI6419982
aI3293234266
aI166315104
aI19678305
aI337167459
aI14085981
aI30065770
aI16303211
aI21972076
aI20123204
aI266814579
aI14206068
aI67585143
aI729793656
aI14337145
aI369017980
aI20563069
aI26244629
aI442418304
aI340018305
aI1969374338
aI29543275
aI1071596678
aI26166408
aI14173325
aI1000591
aI7976472
aI410633364
aI531154069
aI4899991
aI15058072
aI16663709
aI912616322
aI334678896
aI112510114
aI2475171
aI1688741
aI10437802
aI755491015
aI7095472
aI3139486897
aI21710002
aI2239775923
aI613467318
aI22656543
aI23666890
aI2902901
aI284771521
aI18203844
aI101336261
aI26406166
aI3115107534
aI205669583
aI14566614
aI19055831
aI45991128
aI1721561
aI85986001
aI82447226
aI9323742
aI73758245
aI210158817
aI12993762
aI56935651
aI21251300
aI6664
aI18236650
aI238233563
aI73549040
aI23475752
aI1530873074
aI25019638
aI182961400
aI27935993
aI1679
aI14173438
aI88982785
aI24724740
aI539739402
aI64275723
aI9127182
aI538330383
aI26002706
aI82494739
aI134464789
aI30885142
aI30098712
aI55330075
aI16303389
aI931087646
aI15353121
aI27715293
aI5376902
aI22680819
aI27313448
aI397559082
aI9815342
aI18203956
aI19842357
aI10503482
aI15287611
aI26133822
aI17987125
aI14173505
aI6210882
aI133401483
aI9356612
aI56640837
aI17220934
aI33612001
aI16827720
aI238077260
aI15354765
aI37766483
aI90785108
aI14828888
aI167518436
aI862209374
aI44123487
aI29246817
aI19744099
aI1007689958
aI3256927590
aI20530535
aI927888956
aI235340505
aI22824309
aI33736056
aI18138491
aI14822735
aI31376767
aI62702979
aI316589445
aI759932047120969728
aI384595521
aI433079688
aI17745290
aI16500108
aI34719119
aI26428817
aI17352083
aI47564182
aI217990551
aI82429339
aI15012042
aI66078109
aI243418528
aI2271666416
aI14632354
aI6505892
aI113034662
aI3296829681
aI27677544
aI259638703
aI155502000
aI7718322
aI1219939230
aI1754551
aI27674040
aI15713724
aI673213
aS'bokardo'
p38
aI10438082
aI16860612
aI7561462
aI255542726
aI3163591
aI4611360201
aI94619082
aI18952433
aI9291212
aI2155300302
aI798211
aI1947551185
aI633619922
aI7304782
aI286180822
aI24724952
aI5916122
aI20399581
aI1885128162
aI16565733
aI14431882
aI70960617
aI287181735
aI619791852
aI14763501
aI633708797
aI85214704
aI384648689
aI488162804
aI1339835893
aI18073079
aI253249018
aI21087741
aI319714901
aI108709377
aI2783331842
aI14289835
aI2790344196
aI369060068
aI7456262
aI22282564
aI173935532
aI5391882
aI2967051
aI10952962
aI20956686
aI78038545
aI2115091
aI28281774
aI14579289
aI804376
aI7545092
aI20530716
aI3917341
aI5096991
aI10503712
aI163530275
aI22554286
aI100813745
aI267372072
aI2755376732
aI4310571
aI24790575
aI607793
aI108334003
aI9193012
aI702898373226004481
aI327665206
aI224577080
aI22988346
aI1686685243
aI20891198
aI771648
aI1696011
aI14534212
aI19121733
aI323634758
aI274417225
aI32328631
aI1372952305
aI53429839
aI640593
aI27244131
aI7751252
aI6145622
aI264521303
aI3079128664
aI223904855
aI20891228
aI152565349
aI45637904
aI14239331
aI218547812
aI45708902
aI47105640
aI3004
aI21317228
aI14404541
aI12633712
aI35812968
aI95340148
aI738933
aI66438777
aI29738618
aI400766570
aI55795989
aI771712
aI20366979
aI17650721
aI36226695
aI200236063
aI28990836
aI8144522
aI5719692
aI14730894
aI53233297
aI120243865
aI15414895
aI22103709
aI95831711
aI177915553
aI2534983330
aI20367011
aI2570372772
aI38487718
aI3634801
aI1933166250
aI14730925
aI267634351
aI6145712
aI109004465
aI767603
aI13158072
aI46876345
aI35440317
aI8668862
aI251971263
aI965953220
aI37865157
aI261048006
aI14763721
aI19711691
aI14468812
aI52184782
aI81544911
aI27707088
aI1674119292
aI10798802
aI140134100
aI15353560
aI19908313
aI9946842
aI1344915163
aI1850132190
aI2392001809
aI6637282
aI16664291
aI35047140
aI2321672257
aI89113880
aI17614569
aI14173930
aI156059371
aI221103852
aI553880052
aI14829295
aI25157928
aI56542962
aI10271412
aI14763764
aI50933
aI177260278
aI14501624
aI82757369
aI2148091
aI14501628
aI6529322
aI1027622654
aI230737664
aI14993153
aI596930806
aI14337796
aI223102727
aI80725768
aI133678860
aI45598477
aI28959021
aI89802513
aI26330898
aI544458515
aI253249300
aI18892565
aI280774423
aI15189785
aI17223003
aI19777308
aI14370589
aI9094942
aI3096692513
aI758888
aI79218469
aI2761869095
aI19908394
aI804654
aI12581202
aI11683632
aI18630450
aI14197043
aI8308532
aI12601142
aI2310782557
aI170444600
aI1339930159
aI220710716
aI17675914
aI8963902
aI38117685
aI2856699712
aI10456032
aI14284427
aI5785412
aI386132991
aI22132364
aI55725026
aI16601121
aI892061
aI80267089
aI6834002
aI80332630
aI18794329
aI42186383
aI608093
aI82500953
aI44091231
aI33310560
aI77723280
aI110446435
aI14436196
aI402099174
aI14632806
aI27948689
aI298169359
aI3622761
aI11487082
aI93734766
aI228575087
aI46156776
aI591185779
aI11552632
aI79742841
aI1155391
aI225822590
aI149075605
aI15845256
aI558911258
aI23152525
aI14501774
aI2083821
aI754272146
aI183912339
aI31868820
aI22693781
aI18565016
aI7718812
aI22651205
aI33048481
aI17736006
aI804775
aI3019786156
aI18009074
aI42944430
aI221525661
aI142019571
aI14600116
aI21219253
aI2629961
aI18106298
aI14075836
aI19351487
aI569395137
aI13256642
aI67772747
aI18910198
aI20400071
aI56424710
aI33933259
aI27314124
aI15255503
aI94685136
aI1230801
aI47007699
aI18597844
aI1131865844
aI8341462
aI1542521376
aI14403545
aI7096282
aI2147862493
aI174573536
aI15878114
aI2352138212
aI24659945
aI7358442
aI14731243
aI59361261
aI3393521
aI17549298
aI237160435
aI641013
aI2297612278
aI41109496
aI14141433
aI316327930
aI134284696
aI6690332
aI22988800
aI128993281
aI83823463
aI51203
aI8479062
aI23926914
aI14305287
aI35473416
aI958154761
aI64090321
aI1960003596
aI522357762
aI316426255
aI39241744
aI17691106
aI14862354
aI641043
aI443336727
aI302991385
aI8308762
aI2739351
aI10264922
aI2615416442
aI46123040
aI6780592
aI186533925
aI26101798
aI1706
aI2565589034
aI819535628056625152
aI463226925
aI5720112
aI8162312
aI134826034
aI14600243
aI32622651
aI36194365
aI1628522558
aI18303039
aI1583923219
aI14272579
aI705086592860291072
aI45364918
aI18597959
aI1291711
aI79543
aI15089854
aI18536734
aI772179
aI2980530266
aI215133
aI15098213
aI41633889
aI7850082
aI14338147
aI14370917
aI14207078
aI16664681
aI22169709
aI182383
aI6604912
aI2698594417
aI114870386
aI15892927
aI1418031618
aI1096206456
aI137447546
aI23989269
aI1493121
aI21055620
aI2284800133
aI35014791
aI37832840
aI20301961
aI21055627
aI42813580
aI47773378
aI73451666
aI267339923
aI14796950
aI10864792
aI19351707
aI1663257626
aI40847518
aI16205983
aI870561
aI15517863
aI14665896
aI27510953
aI15878314
aI554661575
aI2377901
aI390547632
aI294008891
aI20734323
aI673973
aI14502070
aI14904209
aI1249986750
aI2379473269
aI200689857
aI60573615
aI15780038
aI1403111624
aI376195275
aI23480524
aI3393741
aI63374074
aI14895312
aI326912209
aI19744978
aI41142483
aI11094232
aI305318105
aI5392602
aI28178127
aI11978972
aI3075393758
aI204753119
aI917620962
aI443697381
aI18008295
aI23711969
aI80529645
aI24889586
aI772339
aI19384564
aI14797045
aI2167073328
aI475744504
aI34392313
aI104286459
aI34195709
aI18434302
aI238930175
aI2916305152
aI149763
aI17123593
aI11094282
aI2694662413
aI18958606
aI34687247
aI2187651
aI1984791
aI77023512
aI18713
aI65325338
aI2869531
aI597903645
aI579914014
aI233392415
aI15452449
aI772386
aI161794340
aI7916772
aI209668391
aI634734888
aI83052841
aI64112938
aI142887211
aI20875033
aI3028338992
aI228804913
aI24660275
aI66473359
aI520440119
aI14240056
aI12044602
aI552094012
aI14519349
aI15396961
aI8058592
aI180701506
aI166545733
aI15518022
aI116869455
aI42387793
aI270911826
aI33966423
aI15452118
aI2785954140
aI15092066
aI127420771
aI425544038
aI60449169
aI87574888
aI14371177
aI16009578
aI875864466
aI6375792
aI33343857
aI17484146
aI8407412
aI51573
aI2372290934
aI772471
aI313346425
aI52950762
aI599640449
aI776480237584461824
aI168970631
aI195348872
aI19876236
aI46582158
aI423414160
aI115427729
aI299797571
aI16941898
aI110446998
aI14076314
aI69552540
aI131588506
aI21252510
aI61131167
aI18434464
aI36956897
aI16632227
aI16009642
aI11815342
aI18863
aI147409330
aI14174646
aI422046467
aI674233
aI25807291
aI19417532
aI725699006
aI17217269
aI205900224
aI19210656
aI24562115
aI15059396
aI24993
aI3590601
aI394480074
aI240514807
aI575818188
aI3673967055
aI7525062
aI27871697
aI15387090
aI9469982
aI15223252
aI574835159
aI14731736
aI3051833820
aI32438010
aI15813086
aI1657311
aI38631163
aI275663333
aI33868263
aI144460264
aI26425084
aI40722855
aI2551110750
aI5442642
aI228215278
aI251999997
aI917228018
aI1051731
aI12798452
aI68510121
aI21613049
aI40356349
aI331532800
aI14764546
aI15813127
aI6074952
aI310403500
aI15720542
aI27511311
aI17189394
aI21416467
aI75549204
aI15485461
aI18074136
aI1788441
aI5556762
aI4934171
aI18696732
aI11782692
aI12285702
aI14273628
aI12732972
aI6218162
aI27183665
aI260491830
aI3099191
aI40684090
aI772667
aI221378940
aS'joulee'
p39
aI4363127904
aI19384899
aI147671623
aI772681
aI9128522
aI20826699
aI197347921
aI15357198
aI4099171
aI449825364
aI2364590678
aI29172153
aI110283353
aI17582682
aI1940485903
aI15012241
aI641633
aI17812066
aI721570405
aI10439272
aI294341225
aI374000234
aI24889964
aI871021
aI12520552
aI8669812
aI4787915381
aI29481878
aI3355232890
aS'SachaGreif'
p40
aI617073276
aI131582590
aI241006357
aI15518336
aI3557941696
aI605866626
aI17943171
aI31050372
aI2531653398
aI14961286
aI10963592
aI17157228
aI14895755
aI1027033741
aI161532559
aI18958993
aI2212575648
aI4724542101
aI15223447
aI1591961
aI5687962
aI2722908828
aI37735073
aI268257954
aI16566947
aI12896932
aI1882976580
aI18832255
aI30427815
aI232442536
aI15878829
aI2871118510
aI55855791
aI284347056
aI70044339
aI7260852
aI56052405
aI8473272
aI36391610
aI17970975
aI10341052
aI1872799927
aI43934803
aI47925955
aI6539972
aI13585102
aI14535376
aI25152209
aI2247381
aI23710424
aI14338778
aI72436447
aI55993
aI19385061
aI19096017
aI10308732
aI211208938
aI20466412
aI121031805
aI17965523
aI1327024884
aI25053942
aI55659255
aI2222312184
aI15977209
aS'jakek'
p41
aI195447548
aI884542592
aI14366507
aI24169220
aI707333
aI8276742
aI28363528
aI9161482
aI169986827
aI18746498
aI32361233
aI38685459
aI38488854
aI606522136
aI7129882
aI97340187
aI102812444
aI16288901
aI17451808
aI16370466
aI183552804
aI9292582
aI17451816
aI3951401
aI26725162
aI805675
aI9554732
aI21280562
aI14371632
aI18598705
aI12766002
aI613513011
aI7064372
aI17812282
aI1577241403
aI120507196
aI21711679
aI29412160
aI706543371
aI79219852
aI14404426
aI10079052
aI242797389
aI14502734
aI524373133
aI20892496
aI167398227
aI367119191
aI6015832
aI1691044698
aI13650782
aI70754789
aI25217888
aI19516260
aI12798822
aI20237160
aI2460502890
aI740203
aI20532076
aI103140205
aI732318576
aI14764915
aI1100661
aI19811190
aI119163769
aI342084474
aI15125371
aI130425322
aI3102985805
aI15305877
aI14139773
aI226216837
aI92130185
aI2421279626
aI3754891
aI9980812
aI3062156173
aI17670637
aI9554832
aI17566872
aI128011156
aI15256469
aI632507286
aI150423
aI27970457
aI14732187
aI14404508
aI936861
aI7490462
aI28461983
aI15420320
aI237854998
aI39262778
aI14109605
aI5663182
aI93506479
aI898086728
aI222028275
aI1035191
aI190991288
aI15977402
aI16862139
aI251481021
aI2841627585
aI14896067
aI14859767
aI279792583
aI421219272
aI49040332
aI543902670
aI16141267
aI587811802
aI162745308
aI2285423581
aI378162144
aI14175202
aI14148091
aI28068837
aI2227456998
aI777735180
aI161043
aI1199081
aI9554922
aI2378731
aI246598636
aI1428461
aI18041838
aI11291632
aI77515762
aI18959348
aI822441
aI17288184
aI15497044
aI2202870271
aI11160572
aI2182141
aI1264641
aI995178326
aI89017350
aI48188423
aI6114312
aI19281751
aI29871116
aI281613
aI18795534
aI14437393
aI80794949
aI19909653
aI1247464470
aI31193875
aI11967072
aI2842348570
aI19483
aI1854983197
aI173198366
aI34589728
aI2608161
aI136432675
aI14437413
aI8735782
aI18500786
aI21515310
aI4230362973
aI17484849
aI8604722
aI22432819
aI245943348
aI1133621
aI17386551
aI14175289
aI18041918
aI8441632
aI48775665
aI12962882
aI6425782
aI20565064
aI25152588
aI238406734
aI11062352
aI15125585
aI26758226
aI2993376339
aI14240953
aI144308068
aI249842778
aI1566919772
aI203607134
aI857099359
aI17681505
aI1629244514
aI38456507
aI18792698
aI212257893
aI886885483
aI40225900
aI16043118
aI14273725
aI405097584
aI69762387
aI16523795
aI12127422
aI2359970970
aI5819512
aI1834273916
aI2530135165
aI13454462
aI20565122
aI14929027
aI1133701
aI22181740
aI2798898314
aI3034251
aI14863500
aI2899889293
aI28429455
aI232639632
aI21417105
aI18157057
aI1335348374
aI2414693527
aI256265368
aI7359642
aI19478383
aI257215644
aI14475802
aI40127648
aI47537917
aI133680293
aI34852008
aI15158441
aI1313991
aI198835907
aI14852637
aI2739588274
aI36636985
aI460442806
aI22760649
aI29183161
aI69618874
aI2246102203
aI15862986
aI180696949
aI20177440
aI22727874
aI14159158
aI11979972
aI19653
aI3256503494
aI353737617
aI16207052
aI399133898
aI720850123
aI119983308
aI16960718
aI9882832
aI162340078
aI20040915
aI527387861
aI233000150
aI19844311
aI23249561
aI383012058
aI17845467
aI15650012
aI215403742
aI14410277
aI7064802
aI1035491
aI230542564
aI16534759
aI19385576
aI3240185065
aI873385195
aI17681644
aI245533906
aI241170301
aI18762994
aI658643
aI28069111
aI17566932
aI7785722
aI788352252
aI118013
aI137874686
aI16895231
aI16076032
aI27621248
aI7097602
aI23847467
aI23481558
aI1476021511
aI126454994
aI34786569
aI705645835
aI236845613
aI2884717841
aI53038354
aI40160532
aI20199218
aI2837721
aI14503196
aI22301983
aI500419872
aI904411
aI298372388
aI11619622
aI340501041
aI2255986280
aI71028010
aI34000178
aI189156652
aI210193709
aI14372143
aI86330674
aI14634291
aI34131253
aI6507832
aI30133564
aI23115658
aI18402622
aI22465855
aI15355201
aI19877186
aI16239939
aI666153
aI211100214
aI19783
aI62853
aI16958343
aI45239629
aI218615120
aI12340562
aI428772579
aI18107737
aI16141659
aI216625986
aI1334922589
aI11423072
aI2678082914
aI1283902819
aI16174436
aI273239400
aI796806510
aI4579901
aI145345906
aI47312060
aI17714548
aI16633207
aI13946232
aI16928122
aI25201898
aI609663
aI199052675
aI77319557
aI543739275
aI19853
aI187911566
aI307285391
aI12373392
aI12711832
aI1133971
aI15814036
aI44453270
aI14667160
aI355430179
aI19647901
aI482168224
aI17823643
aI5033381
aI17075441
aI29476383
aI4824769095
aI18173356
aI16141554
aI18075055
aI2772401
aI34164147
aI255806903
aI396905912
aI48025018
aI118203
aI14405053
aI39275966
aI2295580122
aI4541891
aI18402756
aI18501061
aI6868422
aI4069341089
aI281628104
aI14208457
aI14208458
aI11962722
aI8801742
aI14896592
aI18206161
aI15486419
aI16469461
aI14339542
aI221892875
aI15093212
aI14344784
aI13258212
aI251219429
aI46190055
aI414404072
aI12865002
aI280186348
aI2288668141
aI5721582
aI642543
aI518802929
aI59166197
aI286820571
aI3919351
aI472829432
aI17714681
aI553864447
aI276549117
aI2597461
aI7392512
aI18337283
aI14700036
aI41963014
aI21089537
aI10243592
aI217239049
aI14115415
aI54185484
aI15027725
aI6245902
aI14366637
aI12897812
aI14643631
aI577490455
aI515034648
aI1363481
aI546983450
aI52763
aI6840922
aI7491102
aI16174623
aI8834592
aI26853
aI899941
aI434144124
aI597118506
aI14798087
aI16109100
aI1691181
aI12734002
aI73813556
aI20472414
aI52793
aI6475322
aI14601788
aI1087822681
aI1685147198
aI38731420
aI15814213
aI2361511494
aI245828876
aI6409802
aI1576685131
aI266560098
aI740943
aI220548689
aI9981522
aI177788470
aI14274132
aI33836629
aI17468569
aI388124249
aI131092061
aI2483572320
aI2515356944
aI3221966435
aI60935781
aI15060582
aI839271
aI14208617
aI142954090
aI3526251
aI1534185068
aI408112402
aI14437998
aI970351
aI217391720
aI14339698
aI22007671
aI740983
aI37382785
aI253578873
aI574476599
aI64823914
aI240378475
aI6868612
aI15683208
aI114577036
aI3460751
aI1931988625
aI23809682
aI12865172
aI773781
aI574213782
aI425578135
aI2313881
aI15302678
aI17092251
aI19729690
aI43667102
aI18697888
aI112316065
aI29309515
aI17184710
aI46419622
aI57659047
aI14405290
aI20297671
aI167792303
aI8244912
aI9096882
aI3238219443
aI25022132
aI59821751
aI14241468
aI1729121983
aI15158976
aI22891808
aI22269634
aI25054915
aI268488388
aI220122822
aI17977032
aI19943113
aI1385647819
aI18665164
aI7589582
aI74370767
aI12329592
aI7982802
aI8179412
aI338120406
aI14186454
aI20401881
aI7786202
aI25032655
aI13918842
aI617467615
aS'lauraklein'
p42
aI17911526
aI81186535
aI14929640
aI14110443
aI86789868
aI5656302
aI1543201405
aI199347953
aI612847348
aI14372597
aI71454459
aI18206462
aI1512066816
aI415846148
aI2035631
aI40193798
aI56872711
aI14159148
aI14995210
aI46233559
aI7458572
aI14361277
aI13258512
aI14405393
aI7694232
aI13255722
aI169791252
aI33836821
aI461655834
aI22826779
aI14700316
aI14179496
aI50450208
aI806689
aI239550644
aI20631332
aI19418918
aI23449384
aS'michaelabehsera'
p43
aI18239275
aI12143922
aI13984392
aI107663159
aI17977144
aI1413238586
aI9555772
aI259804991
aI15005664
aI8834882
aI184133
aI15617862
aI229134151
aI15683403
aI15650636
aI3558851
aI1454821201
aI60018520
aI14328463
aI104288093
aI25624940
aI14471007
aI243847008
aI382685028
aI6944742
aI18466962
aI140108433
aI18567018
aI19953639
aI14929772
aI7589742
aI158093167
aI17518448
aI15126388
aI1855351
aI2233847674
aI23121787
aI18075516
aI17774570
aI390443435
aI15617921
aI708483
aI21637787
aI280743814
aI27839809
aI839561
aI1691176842
aI559959948
aI7163202
aI343035791
aI8474512
aI190533521
aI8540052
aI80367509
aI274042180
aI16240539
aI18206628
aI19255205
aI14929834
aI2052011
aI2895499182
aI16797616
aI233394099
aI35999668
aS'CoyleAndrew'
p44
aI2380961067
aI1726074810
aI1396671
aI17780672
aI14060875
aS'hunterwalk'
p45
aI2715520332
aI73224138
aI85741515
aI4557819854
aI22023502
aI190871545
aI44257250
aI17151995
aI110568102
aI13815782
aI129311597
aI18436072
aI937961
aI398249963
aI37605356
aI15191378
aI19412989
aI60631003
aI1724401
aI13520882
aI14471155
aI33345525
aI19058681
aI552871925
aI20041725
aI223924222
aI785776000558780416
aI2343358465
aI722467818373926914
aI29347843
aI17747972
aI12210182
aI30068744
aI2309509129
aI31084556
aI872461
aI276254736
aI11915282
aI4902931
aI143544340
aI14307351
aI18894874
aI243355675
aI17266725
aI14110750
aI14110752
aI8413872
aI14077987
aI726749221
aI17506774
aI15454250
aI453595180
aI122376238
aI2281521
aI33935410
aI241324083
aI16601140
aI14717846
aI15999668
aI186048170
aI16896060
aI123975690
aI8146272
aI33181762
aI169555979
aI643143
aI15061067
aI19714125
aI2609231
aI143762104
aI20563
aI501807118
aI17584215
aI40063064
aI714985562
aI190632027
aI32591964
aI370266205
aI225857631
aI202428512
aI1101921
aI16123223
aI21876836
aI161735356
aI14766188
aI10473582
aI317247599
aI7393392
aI1097370984
aI84594803
aI166482038
aI970871
aI47075449
aI15344157
aI129857557
aI873025664
aI309743747
aI13127812
aI7813142
aI29729473
aI462180488
aI15093898
aI14721730
aI13127822
aI79089810
aI2391139011
aI74764436
aI838673862
aI7032982
aI20533400
aI240472219
aI774300
aI2870136989
aI16044192
aI72929442
aI77942947
aI436293798
aI21221543
aI11915432
aI2445481
aI14373036
aI46846125
aI62847005
aI3240469192
aI14897331
aI476270772
aI14569653
aI581357750
aI2652754103
aI15814841
aI185276542
aI6574272
aI3985601
aI8933572
aI1491325128
aI28004554
aI822647
aI18927821
aI194055544
aI847368403
aI326783189
aI38686935
aI788287705
aI566633167
aI637259997
aI676063
aI1439027425
aI2085091
aI14176484
aI610533
aI23154919
aI17518825
aI398119146
aI4182251
aI8442092
aI16142574
aI2937071
aI643313
aI19751635
aI1707266293
aI15814902
aI13226232
aI192401658
aI39341439
aI14176514
aI30036227
aI56643844
aI574869766
aI3026604299
aI18829580
aI97571087
aI381203
aI10080532
aI10113302
aI87576856
aI15356187
aI20558673
aI15781253
aI6344992
aI17748260
aI12455302
aI95867174
aI21254439
aI32428328
aI27447593
aI94178695
aI17289517
aI14799151
aI7590192
aI17551666
aI1013811
aI17518902
aI1895518519
aI120049976
aI98816315
aI609543
aI202875616
aI189288772
aI129812130
aI21778760
aI9813262
aI1936052557
aI15159630
aI20221325
aI15770339
aI15510016
aI19123378
aI3143586136
aI42815835
aI1890308449
aI334942563
aI63262233
aI388976997
aI18370918
aI6705512
aI17912169
aI258515687
aI1931202925
aI2792378734
aI15661117
aI9949552
aI6467822
aI184693
aI3230388598
aI389501305
aI454676858
aI153932155
aI14995838
aI22368640
aI741822852
aI62509445
aI24859015
aI159207816
aI7262602
aI40161677
aI22696334
aI85414287
aI568866223
aI18731411
aI15278830
aI3255161238
aI14668184
aI46616985
aI17162991
aI44585374
aI387240355
aI20903
aI118837674
aI14995883
aI6377902
aI3060239773
aI12964272
aI12236872
aI25219509
aI16306615
aI15192504
aI2745782713
aI17289660
aI216463434
aI89608638
aI2191384872
aI807360
aI1495491
aI12308932
aI15421894
aI252531143
aI33640905
aI15946191
aI2316980689
aI14143955
aI29872602
aI17060316
aI49297488
aI13292002
aI3985891
aI117756390
aI3166701
aI25121265
aI205345266
aI81744373
aI7885302
aI15618553
aI19354106
aI680703
aI19271147
aI362959360
aI284316161
aI14504451
aI14078468
aI6017542
aI610823
aI250275263
aI18010634
aI676363
aI818860556
aI20042254
aI14601645
aI3062190609
aI63328787
aI257085972
aI709143
aI2297710045
aI86626845
aI161463645
aI104537068
aI16616880
aI14111267
aI8639012
aI9331462
aI15356454
aI17584679
aS'addyosmani'
p46
aI3513799216
aI178246193
aI431804978
aI16223667
aI73224758
aI21156407
aI14897720
aI610873
aI10146362
aI221172285
aI59068990
aI16372287
aI26563136
aI257765996
aI7852612
aI643653
aI9851462
aI543478343
aI24171080
aI917328457
aI18567754
aI626103
aI12735052
aI50523062
aI87592376
aI17355350
aI290885049
aI35541592
aI274331748
aI6574682
aI20964111
aI13816412
aI4076588474
aI1393164308
aI13682382
aI15486395
aI7262822
aI17453672
aI15749737
aI782586474
aI234296047
aI4280941
aI1002941
aI14373489
aI1020383864
aI35758868
aI21744912
aI3363451
aI2962667626
aI19522325
aI15618688
aI6114752
aI14111362
aI19150955
aI15651460
aI14176902
aI2711212681
aI54317706
aI1379750540
aI908251789
aI236376721
aI53236370
aI22532755
aI55038613
aI21746327
aI6935192
aI122179012
aI20927130
aI106870895
aI6181532
aI97833629
aI15258270
aI17355423
aI224219809
aI15749794
aI392236486
aI462574248
aI15674788
aI104354476
aI142526297
aI74529660
aI16732848
aI146068145
aI467849910
aI774842
aI631583
aI20909514
aI14167938
aI15192767
aI61100741
aI27644614
aI165202163
aI14111432
aI12708
aI93973192
aI1756621
aI18698960
aI31478481
aI1200851
aI397102542
aI14809209
aI35214040
aI259613476
aI15365614
aI676573
aI59364063
aI255939300
aI252267985
aI12669672
aI15192809
aI2788483879
aI21549806
aI7103272
aI546435619
aI7659842
aI100127476
aI23778038
aI15868713
aI12276472
aI340644602
aI20271868
aI774909
aI14439168
aI3263674496
aI2512638722
aI202724099
aI36688644
aI189222358
aI2841326331
aI15258376
aI8725292
aI6837002
aI16634635
aI200135441
aI42947347
aI48911124
aI14061017
aI27087640
aI52417305
aI38228764
aI61297437
aI15782687
aI20173601
aI63787812
aI103207720
aI20566825
aI2457254023
aI47951511
aI5952302
aI174281519
aI344511280
aI817288
aI22976635
aI774964
aI131322680
aI48419641
aI11391802
aI18305860
aI2803852087
aI569267022
aI14235789
aI11752272
aI14078802
aI11653972
aI250401623
aI17126234
aI18872463
aI2357416796
aI819058
aI20925925
aI13652832
aI15225697
aI992191
aI15979364
aI11621222
aI72242024
aI159896425
aI15815532
aI37147503
aI16186095
aI840561
aI18994034
aI16143219
aI16274292
aI3527541
aI21844854
aI41603960
aI561337210
aI122506730
aI2230047990
aI658923
aI14865284
aI276747142
aI14308231
aI793912272355659777
aI22958986
aI29021067
aI8475532
aI64198441
aI775246734
aI2970511
aI17453969
aI50090898
aI173974339
aI17814420
aI21138926
aI7689112
aI1031622127
aI609678199
aI7590212
aI26760094
aI18535331
aI8082342
aI2182641
aI19714984
aI344314794
aI16700331
aI15258540
aI2208027565
aI394646446
aI36131760
aI18895794
aI3241375902
aI12604342
aI14111671
aI21844920
aI509072313
aI16700346
aI29083
aI7168842
aI18895806
aI18895807
aI8836032
aI14078913
aI873411
aI8883702
aI938951
aI19813323
aI11817932
aI105534413
aI304244509
aI146297807
aI331404242
aI215372755
aI116872150
aI21007865
aI2475086809
aI38327259
aI5690332
aI264604122
aI935515106
aI106451939
aI566252519
aI14930924
aI9511762
aI1666871
aI13292532
aI1333202430
aI9917432
aI17650681
aI2020351
aI3214201857
aI135582723
aI12407812
aI19981142
aI4854731783
aI1071107461
aI15808684
aI117789706
aI121643863
aI23450636
aI93447278
aI6345742
aI18732047
aI43406353
aI14061059
aI273404950
aI314561561
aI1037341
aI107926561
aI4824093730
aI35119963
aI26255489
aI24794153
aI192533547
aI236999725
aI601117743
aI16536624
aI120116275
aI14636084
aI740873
aI50266898
aI1221471
aI7099452
aI29840446
aI14799936
aI67163202
aI42110701
aI52057157
aI2674021446
aI21877831
aI14267244
aI150656075
aI43570256
aI470438993
aI17126484
aI278220302
aI80335962
aI29381723
aI15914078
aI282108773
aI15291488
aI23123041
aI143053926
aI61310227
aI14799978
aI3185955949
aI17667607
aI33831101
aI4215921
aI12244082
aI236298973
aI167793781
aI12473462
aI1545098360
aI37752340
aI5657722
aI14497983
aI14115690
aI16372866
aI2551338116
aI19354761
aI12211342
aI232936591
aI271275153
aI20403346
aI524342419
aI346117268
aI18371733
aI245945495
aI17927731
aI389931887
aI3565343902
aI808096
aI281793699
aI13063332
aI31357126
aI14341286
aI17388712
aI89314473
aI6935722
aI555677895
aI169727148
aI28693677
aI19485870
aI34231471
aI1133821
aI431412404
aI9589942
aI141162697
aI120181944
aI14374075
aI1061632202
aI17487038
aI60216511
aI181720256
aI6182082
aI1374411
aI42226885
aI18484769
aI22697165
aI19167437
aI281138384
aI1692881
aI49960147
aI29938901
aI881415385
aI21723
aI14705530
aI200838693
aI353195232
aI2167690465
aI61068514
aI24748923
aI7886052
aI30495974
aI74503401
aI15946993
aI14570738
aI19125493
aI110974198
aI2548749559
aI400905465
aI3032757481
aI10800682
aI121656574
aI7644032
aI1210471682
aI18828843
aI17454341
aI8115462
aI126702857
aI192730379
aI242177294
aI7296272
aI9926872
aI455304067
aI11458682
aI319103876
aI14013722
aI21583132
aS'kristynazdot'
p47
aI105436449
aI23372678
aI1490212135
aI10671402
aI8793052
aI55006510
aI4700381
aI120113
aI13096242
aI15765043
aI39149382
aI123828446
aI14803849
aI14079288
aI939321
aI2208126266
aI151999803
aI3626301
aI95409471
aI29742400
aI6453472
aI1401443653
aI22837473
aI6284172
aI2901923146
aI17561826
aI14439760
aI266786132
aI54613
aI3218756953
aI209544079
aI25384284
aI21853
aI14407007
aI9262432
aI2893949375
aI18732388
aI61461861
aI2239812967
aI7624042
aI3170424171
aI374822255
aI258107547
aI2503333237
aI5723512
aI475190649
aI710013
aI24401279
aI122208388
aI20953323
aI19912068
aI16930181
aI17225095
aI26891656
aI12408202
aI17847692
aI57562509
aI30922126
aI1268667794
aI9491862
aI308814745
aI73029017
aI105895323
aI16340380
aI17228698
aI14144926
aI15357343
aI34018892
aI16242081
aI13616942
aI788059556
aI314758565
aI422401447
aI14317810
aI1357632942
aI20469167
aI3656
aI16783402
aI334321077
aI24761783
aI5166521
aI880301498
aI328422844
aI28282442
aI10638782
aI24335808
aI181851585
aI18929090
aI15685059
aI29054405
aI775622
aI46912967
aI28628425
aI14135426
aI17480635
aI1411841
aI63788496
aI17905912
aI26236372
aI2529971
aI196728278
aI906711
aI236541400
aI18732506
aI44944975
aI808414
aI14177759
aI60708320
aI18208226
aI14341604
aI21341094
aI15519313
aI2238862825
aI18535916
aI1366349293
aI14079471
aI14636531
aI9590262
aI10264122
aI43062181
aI17421818
aI29398491
aI14407166
aI2873478741
aI15062528
aI246306305
aI6018562
aI10507782
aI12506632
aI54793
aI1026971148
aI59717890
aI208882310
aI14898704
aI2710525460
aI5940142
aI417027608
aI1201691
aI2999703069
aI15029790
aI14341663
aI55137824
aI589682209
aI153998882
aI15295945
aI12318982
aI14112294
aI14341671
aI4216361
aI153966123
aI18273836
aI16012845
aI14079534
aI59101795
aI18298379
aI26400310
aI301644041
aI933418555
aI12867132
aI9517322
aI212981315
aI457233988
aI184997446
aI373872203
aI18017206
aI6477392
aI360273490
aS'biz'
p48
aI22271574
aI15279033
aI14079576
aI5658202
aI10770012
aI16275037
aI7198302
aI16471647
aI10835552
aI22113
aI1003869794
aI19477408
aI106026597
aI36059409
aI14243432
aI13293162
aI17618539
aI19912302
aI1018962877
aI7595002
aI14767730
aI25453502
aI184897129
aI373564351
aI212227711
aI39507585
aI86890115
aI293741505
aI22153
aI13031052
aI705287821
aI15062670
aI2552891
aI342578839
aI386291352
aI262133402
aI86879788
aI808608
aI16668321
aI5854882
aI18405027
aI18372260
aI50340806
aI24041126
aI22795945
aI1324273266
aI9688752
aI17454769
aI327046834
aI808627
aI14440117
aI14210746
aS'davepell'
p49
aI750802622
aI20567743
aI41866944
aI17520322
aI14752818
aI2877904580
aI15947461
aI14372471
aI7460562
aI17913555
aI1182979796
aI2926827222
aI246664825
aI17873188
aI35509978
aI14341853
aI14046943
aI244067557
aI71754704
aI237819619
aI158087462
aI243259110
aI189617895
aI16144104
aI22253
aI17192686
aI2286997117
aI7362292
aI16963319
aI78062548
aI9950972
aI10458132
aI22828800
aI327084439
aI15718150
aI279329068
aI991745802
aI3420477195
aI2880329484
aI19519245
aI243665363
aI14145296
aI68474641
aI24270610
aI770264707
aI247879444
aI6257282
aI30581721
aI14931736
aI206657306
aI361289499
aI2340869917
aI208009520
aI20928291
aI21223204
aI77059877
aI14898983
aI63751627
aI7460652
aI17061679
aS'kristoforts'
p50
aI74112480
aI511170358
aI273274681
aI4282171
aI350013
aI537220926
aI21756213
aI1283544896
aS'nireyal'
p51
aI7657282
aI14179979
aI677703
aI369088329
aI49425619
aI6838092
aI2479951
aI1134319440
aI15595832
aI787864
aI1439455063
aI819028964
aI6903642
aI14538587
aI612193
aI162125670
aI16141969
aI2312059196
aI19847019
aI47241069
aI442357615
aI14814762
aI29054836
aI2621764811
aI92034935
aI13520532
aI276551546
aI21739330
aI25712510
aI2398312320
aI45111170
aI34169835
aI58906501
aI757718283185483776
aI6997072
aI40458121
aI57071500
aI14494227
aI15062929
aI31043
aI18208662
aI839321
aI218453913
aI81287066
aI54515611
aI14047134
aI2607404960
aI137877410
aI17845915
aI2612713381
aI13250092
aI330389418
aI4970411
aI386815916
aI43964334
aI14473140
aI22453
aI24958902
aI15685559
aI15161274
aI257021892
aI178182081
aI6182852
aI21845959
aI677833
aI14505932
aI16682658
aI21485520
aI23254994
aI1365971
aI14787577
aI16322212
aI2739635613
aI22821199
aI9525212
aI45720570
aI388650977
aI20928482
aI776164
aI3299301
aI28825574
aI14669799
aI24926184
aI15226857
aI247412311
aI1380514130
aI134207471
aI35851944
aI531585010
aI17356787
aI14112756
aI1392826357
aI76699639
aI633660653
aI22523
aI70596949
aI808960
aI148300800
aI15871237
aI36775107
aI1090561
aI77715464
aI12357292
aI7985162
aI10803212
aI389896206
aI356767759
aI8911192
aI284678163
aI21481088
aI186603541
aI17742169
aI70768666
aI2054171
aI6477852
aI808989
aI10217002
aI15357991
aI227399720
aI1606047786
aI677933
aI27383854
aI276871517
aI216193075
aI15882292
aI150689849
aI22829117
aI24139838
aI841791
aI16930883
aI1345017924
aI14211141
aI1248417864
aI128047177
aI22603
aI15915084
aI34723919
aI14080082
aI1325411
aI27318357
aI1050597463
aI109893720
aI550492251
aI2178111581
aI2842384482
aI33216611
aI5029791
aI8769212
aI310040682
aI14440555
aI88430702
aI14112880
aI187999251
aI15947897
aI8345722
aI70670460
aI19123904
aI15194242
aI597768555
aI26073220
aI2235095173
aI103898160
aI17913992
aI2345425033
aI201185418
aI270063758
aI27187343
aI16177296
aI678033
aI9599342
aI628906134
aI16737305
aI16799897
aI21125274
aI15653019
aI183687324
aI9184282
aI2447300766
aI17044207
aI32168096
aI1663883426
aI8378532
aI575658149
aI173955238
aI70736039
aI5658792
aI15678497
aI309844138
aI1520228526
aI13205612
aI609226441
aI14538938
aI16356796
aI1403312316
aI234707133
aI422631615
aI14604481
aI2349251
aI14170486
aI15338772
aI826104008
aI1542934220
aI22042826
aI344160631
aI24729804
aI2188957902
aI64280784
aI2906321
aI1452693715
aI18012372
aI332877518
aI12474582
aI2927024346
aI8968412
aI2540951774
aI232478943
aI14506208
aI187104469
aI15259875
aI156921629
aI133189329
aI1436702952
aI22042857
aI178570741
aI180443372
aI21879024
aI776434
aI17619189
aI107193385
aI24238330
aI178960767
aI9001212
aI4446461
aI7395582
aI18616021
aI236169316
aI17324291
aI14047497
aI11360522
aI2178242827
aI44882188
aI82663693
aI2241485071
aI59308419
aI21518612
aI124363822
aI733763864
aI113047940
aI15391002
aI2437784623
aI517495068
aI39587546
aI12179742
aI30628128
aI630381394
aI13261092
aI12661142
aI809256
aI25753991
aI4413741
aI13949232
aI1645369652
aI118642999
aI26267359
aI3261946174
aI401725760
aI595515713
aI200452450
aI50354501
aI2837403975
aI221595094
aI4400651
aI882694476
aI40986880
aI14178641
aI23746899
aI308867170
aI64136249
aI215144794
aI64641371
aI776540
aI762938
aI68109364
aI21191009
aI32430434
aI226141243
aI557767013
aI16505190
aI357221472
aI21322090
aI21748077
aI863164782
aI16243055
aI17750385
aI52359730
aI121952628
aI4807031
aI30628216
aI65362298
aI23452029
aI61823358
aI645503
aI1202561
aI94034308
aI603773317
aI913231596
aI2421021067
aI80664974
aI997232365
aI14834066
aI86549571
aI92395925
aI9722262
aI19257751
aI714758552
aI1001579588
aI126540187
aI44902700
aI678303
aI16144800
aI14263366
aI16636329
aI419092906
aI325343659
aI389994924
aI178903471
aI20819652
aI14804040
aI13785522
aI15849907
aI13982132
aI127058497
aI2957304905
aI257153464
aI39016891
aI347139433
aI15555008
aI110320065
aI17291716
aI14154145
aI2087371
aI37607884
aI14473679
aI907731
aI193681877
aI16210390
aI18774436
aI20358223
aI2166872540
aI80763357
aI9263582
aI45404617
aI30202336
aI279697896
aI823036
aI202136043
aI15129069
aI109500910
aI55793
aI131488243
aI102193655
aI149365844
aI18124543
aI801069565
aI171432447
aI174542592
aI29252102
aI18307592
aI15030793
aI25287178
aI38787595
aI9689612
aI2261309976
aI11833092
aI15686173
aI48192034
aI21846563
aI8143872
aI809512
aI16340593
aI270978823
aI24336948
aI571202103
aI9787962
aI177592891
aI48582410
aI125434293
aI2566019648
aI1235521
aI861887042
aI45079107
aI22370884
aI402020935
aI17881672
aI463198793
aI373414474
aI36788811
aI3018086988
aI245488205
aI7330382
aI18078288
aI14277202
aI15587923
aI83941972
aI1635703381
aI14473816
aI22165946
aI2729061
aI33738512
aI7985762
aI2284131
aI2922928743
aI17750632
aI317938285
aI3859
aI16013942
aI135712532
aI18766459
aI15030908
aI6153322
aI18963070
aI14113407
aI135453314
aI102488708
aI81582726
aI711303
aI15784586
aI12802702
aI560454290
aI15817365
aI24664726
aI14383556
aI22239898
aI74832539
aI14277276
aI1268381
aI20273823
aI15686305
aI6740642
aI14834340
aI32823974
aI68115112
aI809641
aI416504490
aI14408363
aI16472748
aI146037421
aI33348270
aI15129265
aI613043
aI16997044
aI31054518
aI25082313
aI14375609
aI6478522
aI2913262267
aI16734909
aI112417470
aI81484479
aI144956096
aI69324576
aI15784643
aI14080710
aI35576519
aI4214315720
aI27318985
aI24831095
aI37411536
aI105899128
aI14670548
aI10271182
aI322624214
aI17881816
aI14179038
aI7985892
aI53369573
aI19266001
aI50649833
aI12999402
aI97508077
aI11000562
aI103275252
aI14277365
aI11393782
aI6629912
aI8485332
aI183575679
aI15784700
aI678653
aI355472745
aI24206084
aI15317462
aI2513671
aI15588104
aI2204192636
aI7330572
aI61449346
aI6904592
aI96721682
aI34396947
aI9919252
aI14408469
aI3955481
aI17029916
aI28531485
aI176642847
aI32725792
aI97082147
aI162814758
aI72801067
aI28105516
aI12475182
aI13318452
aI141220659
aI5364532
aI18897717
aI54516534
aI92953400
aI31455711
aI106322749
aI14277439
aI342252352
aI16571203
aI481647429
aI153729505
aI1465161
aI9493322
aS'gabrieltomescu'
p52
aI19258192
aI1015991
aI1137491
aI19323735
aI395828057
aI69426011
aI8313692
aI2994559839
aI10017632
aI1448256656
aI14965602
aI3019214651
aI42531302
aI71785320
aI7013472
aI2752830314
aI166845291
aI89229032
aI27515760
aI113457640
aI27084810
aI569891699
aI14106909
aI36232059
aI3026606975
aI5790592
aI336157569
aI193165803
aI14965636
aI27941766
aI54021953
aI14343048
aI32725898
aI148593548
aI14476803
aI646033
aI41343890
aI18078614
aI20112537
aI73194395
aI58074740
aI6814192
aI331228315
aI27974565
aI19242860
aI10247082
aI15981485
aI121166767
aI14736309
aI9550352
aI252231865
aI579328954
aI66476989
aI17062849
aI202540077
aI2022341
aI14801863
aI15227849
aI992126114
aI407539533
aI17325009
aI14441427
aI3252640724
aI18013143
aI12803032
aI23513
aI14343133
aI25287646
aI14146528
aI345103330
aI3185566886
aI3922921
aI13130732
aI1858541
aI14474225
aI403102706
aI1884529722
aI2481141
aI875511
aI7101432
aI2294143993
aI2798607357
aI68770815
aI272784386
aI18635780
aI25983489
aI377576457
aI8543242
aI122084363
aI554523661
aI744463
aI262786904
aI14801939
aI51043348
aI34269907
aI6315032
aI97541145
aI20012063
aI2255445024
aI14507041
aI16440354
aI11918372
aI634084389
aI14375974
aI1444700647
aI199351337
aI2435800106
aI23059499
aI53961906
aI1423718216
aI38263858
aI14900275
aI14481173
aI27286585
aI15260732
aI15293504
aI36854849
aI15719490
aI153811467
aS'chantastique'
p53
aI719373
aI103799890
aI14703700
aI1857051733
aI19979351
aI18963545
aI55457473
aI19487837
aI14802014
aI3082932069
aI23354464
aI813333008
aI529488994
aI15228003
aI8412262
aI16622780
aI18504810
aI71359595
aI25844846
aI23092340
aI744940129555406848
aI14277752
aI21249341
aI47319826
aI324063082
aI15588478
aI1236101
aI1465481
aI1924451
aI8707212
aI1629019278
aI1420103533
aI398875792
aI2937838737
aI15738051
aI152755348
aI20729710
aI18472089
aI13393052
aI66804893
aI80108704
aI679073
aI14867618
aI56424987
aI214850726
aI15031464
aI37332714
aI1039531
aI1760431
aI6577332
aI241196216
aI15588538
aI23289019
aI14427338
aI679103
aI25353409
aI15523010
aI27647174
aI289052830
aI9198792
aI175394679
aI22021978
aI18799825
aI534961363
aI1137881
aI38479055
aI48946396
aI14965981
aI63724766
aI184311007
aI15457504
aI20405474
aI208473979
aI102087206
aI8051942
aI72965352
aI191945961
aI20962539
aI11754732
aI1586668754
aI4938991
aI14394689
aI12565032
aI2589646069
aI370924795
aI12705022
aI959701
aI19160320
aI24272129
aI16866563
aI1367301
aI810246
aI9428232
aI23125257
aI20143373
aI3310083342
aI19750159
aI7709912
aI10083602
aI69426451
aI42744366
aI2269404438
aI189619479
aI13275012
aI7920922
aI169368859
aI155376925
aI480501022
aI102745826
aI3300641
aI1281973538
aI2204097828
aI50990982
aI239557931
aI20176172
aI1599986989
aI16145710
aI974131
aI32267573
aI2207931702
aI17194296
aI14793268
aI3888491
aI22404415
aI2880565638
aI2121031
aI17128777
aI25711093
aI56653
aI19681165
aI12901712
aI5889362
aI2509645027
aI415141774
aI15481401
aI3178307618
aI12002532
aI17161562
aI43244891
aI2818006369
aI26300304
aI21150267
aI1563811172
aI2402475366
aI481418599
aI22510140
aI121218279
aI16211311
aI12477672
aI251583860
aI826137973
aI16789581
aI37215608
aI164420985
aI29515132
aI16587065
aI70977717
aI646533
aI7069062
aI679303
aI14343560
aI71261579
aI117955980
aI17587598
aI18800015
aI187793
aI1727323538
aI425483667
aI21257620
aI37346709
aI536173974
aI102238556
aI16997785
aI38100380
aI3181206943
aI16604578
aI45709328
aI19062183
aI276271004
aI3521903175
aI89868103
aI9037042
aI403889582
aI52836936
aI14933426
aI14247155
aI14769591
aI7841012
aI8445372
aI50093505
aI48946627
aI26762692
aI18111943
aI9493962
aI7396812
aI32913997
aI406136056
aI272793138
aI17751509
aI15110769
aI3530201
aI186834395
aI7495132
aI106356189
aI761454048
aI23682529
aI1691377122
aI6877102
aI21767420
aI117562859
aI712173
aI12246512
aI89611763
aI1275092468
aI22265310
aI20662440
aI14886144
aI18800131
aI17423876
aI48061958
aI646663
aI185064968
aI15752718
aI2386747452
aI810513
aI39607827
aI2599738903
aI16965145
aI19861423
aI118959076
aI14835230
aI82370079
aI858414625
aI14245415
aI93478440
aI17686057
aI25257223
aI16604718
aI1161821
aI3148570160
aI876081
aI369921971
aI33873460
aI27909685
aI17325622
aI15392314
aI558561887
aI30663946
aI9592382
aI119070272
aI42601966
aI295249309
aI2419849825
aI6350092
aI236587264
aI24337999
aI151903568
aI8445522
aI557440595
aI6348372
aI2206948950
aI810583
aI295820888
aI16244315
aI25091677
aI101939813
aI27942496
aI384613
aI1114876050
aI203138321
aI2908970600
aI4415081
aI18964074
aI14474861
aI38919791
aI14442096
aI338648691
aI4030
aI9395832
aI199810683
aI34220004
aI11025002
aI14311039
aI75882114
aI2547331
aI13360772
aI14048901
aI9625222
aI21388935
aI269868680
aI4045266569
aI44770583
aI20680642
aI756481
aI14389187
aI6994542
aI38659353
aI5660312
aI3109674650
aI19357342
aI134700704
aI297131683
aI26664612
aI2543935141
aI2743000744
aI15359658
aI16801452
aI224321197
aI188837233
aI14311088
aI16473778
aI748478131
aI377806516
aI43930795
aI123428539
aI65986236
aI14999230
aI418740853
aS'Scobleizer'
p54
aI145153732
aI43638469
aI24263
aI309911240
aI418275020
aI103112397
aI16047822
aI3137231
aI7977592
aI16801492
aI12738262
aI78667479
aI171761368
aI23092953
aI15294170
aI22535900
aI14585256
aI14358381
aI719483
aI96230203
aI2196922086
aI60907239
aI1927902512
aI3940001063
aI24303
aI13819632
aI2230152836
aI81123
aI360046324
aI27844342
aI17376553
aI1546739449
aI25091834
aI344514301
aI14606079
aI83773747
aI6577922
aI60187947
aI65593092
aI1105671
aI3246284552
aI264953609
aI1400202205
aI36823
aI26304269
aI441507598
aI190734096
aI972906259
aI15818517
aI14737175
aI810776
aI27844377
aI286547738
aI1761051
aI3792671
aI254500640
aI7102242
aI76603172
aI18046758
aI12279592
aI17797084
aI2514731
aI17686316
aI16734382
aI17653553
aI137027378
aI174433587
aI15163188
aI14868280
aI745273
aI20733754
aI19206111
aI6545212
aI811303
aI18014016
aI1260171
aI26042180
aI3516833061
aI1111940934
aI778057
aI122871630
aI15753039
aI4656095056
aI2318161
aI23547875
aI399138645
aI118133101
aI29417304
aI9494362
aI96937281
aI19554144
aI21552993
aI6512482
aI2310102883
aI13000552
aI2263572329
aI2591317867
aI37511020
aI20832113
aI743873
aI57203
aI312631156
aI280125301
aI313450358
aI17420265
aI30859129
aI162455418
aI28630908
aI23027585
aI47243142
aI123438177
aI18702216
aI83087340
aI80764812
aI72343437
aI18079631
aI18931600
aI41220760
aI7167892
aI16637275
aI15514266
aI2987777950
aI18636704
aI304635809
aI2203639715
aI30055993
aI24510870
aI374300583
aI997285801
aI14401550
aI14607687
aI19943410
aI344481710
aI74932143
aI20087429
aI6348722
aI1721458614
aI59137975
aI330981305
aI21225402
aI16375739
aI2260197309
aI15458238
aI151543746
aI14344131
aI6643652
aI9527242
aI3281959586
aI8183762
aI29024211
aI3497941
aI307781593
aI14132559
aI14671837
aI318247452
aI377774048
aI442557776
aI39018466
aI951614118
aI13426662
aI229662696
aI14213097
aI171669403
aI810990
aI20996080
aI16179185
aI107274230
aI448585720
aI29855743
aI762594538737262592
aI765893048609935360
aI773388580483915778
aI737608173196959748
aI3956741
aI746011338409840641
aI8937482
aI35673
aI974861
aI2429018126
aI24017581
aI15130640
aI216900952
aI24436758
aI779609
aI3318272004
aI8348782
aI18605402
aI211935262
aI1615159332
aI16202417
aI44130344
aI15687721
aI169205802
aI14835756
aI1552038578
aI396058672
aI22166195
aI9789492
aI1630261
aI214523958
aI42864649
aI176644153
aI16212026
aI182280252
aI15349747
aI198991938
aI347201605
aI279928903
aI8325052
aI1135730766
aI811087
aI580191779
aI22110290
aI16442723
aI171827285
aI109928536
aI7856222
aI17162335
aI3428933729
aI39805028
aI90213
aI14377062
aI728916072
aI262922345
aI120099852
aI25579093
aI817853
aI14246001
aI87991158
aI1336565875
aI12509302
aI712823
aI18210939
aI16448517
aI1314786373
aI14409856
aI83976324
aI2314446188
aI675863
aI117104780
aI8642702
aI960623010
aI33775760
aI15098005
aI18571417
aI376823962
aI1532061
aI211210267
aI33382564
aI237133992
aI2842124457
aI463463
aI72704174
aI16158749
aI47931568
aI287783624
aI9232562
aI78635192
aI9232572
aI213236426
aI457924798
aI717284725
aI21127363
aI13459652
aI2384071
aI117792968
aI16015561
aI5529802
aI179691723
aI20799692
aI24404173
aI14115023
aI9724112
aI15818962
aI3011121187
aI17901774
aI15818970
aI211013669
aI647393
aI72704226
aI1859811
aI102293733
aI713323
aI14509436
aI12443882
aI647403
aI105079024
aI1761521
aI12640502
aI296706296
aI117375714
aI15884541
aI16448213
aI6578432
aI14613357
aI383901955
aI6676742
aI3825931
aI18931980
aI12789122
aI13033742
aI17916175
aI109011216
aI138141969
aI780100
aI17850643
aI14344469
aI778518
aI18374936
aI15950107
aI57172253
aI13459742
aI15851807
aI9724192
aI73546459
aI9168262
aI130998566
aI14340145
aI549708072
aI172866268
aI15716402
aI2565628206
aI18964783
aI18080048
aI59564338
aI42819893
aI2764661
aI8806712
aI17469492
aI254632255
aI203153728
aI14278978
aI20571531
aI6115382
aI12149062
aI15300655
aI266854730
aI2205137608
aI16048462
aI17949007
aI47843
aI14660162
aI811350
aI46403641
aI106871524
aI5431642
aI32340834
aI336486750
aI366525606
aI16408929
aI1094150354
aI11418342
aI15688041
aI3629421
aI280135383
aI585326960
aI78733683
aI22077812
aI62644597
aI5759352
aI29309674
aI19358078
aI58773
aI26894723
aI25944453
aI154221292
aI22143372
aI1859981
aI61628815
aI30171536
aI36659601
aI14770578
aI14049683
aI422109589
aI34562455
aI105111962
aI14285551
aI14755226
aI17850785
aI14148004
aI46398193
aI15688105
aI25003
aI2614026668
aI159900489
aI1270191
aI7856562
aI343931635
aI27893718
aI180544926
aI128329119
aI865427900
aI599187903
aI39182784
aI4234994114
aI326525380
aI89514438
aI385671623
aI25268300
aI47833547
aI7987662
aI109279992
aI19489239
aI1745215962
aI38986207
aI15524324
aI15224913
aI6480362
aI183010626
aI17939197
aI33284592
aI869012832
aI20079091
aI19292662
aI2995905016
aI86106617
aI24273403
aI22372860
aI212623869
aI602869845
aI1651931766
aI323337592
aI38691332
aI1532421
aI13984262
aI15294983
aI470790728
aI576311383
aI6545932
aI152789517
aI46227982
aI38232591
aI778770
aI43127522
aI166617624
aI6611482
aI25158171
aI16562949
aI12771872
aI778785
aI18696259
aI28697123
aI14705188
aI214491685
aI14443047
aI14410280
aI129859500
aI16343597
aI145875502
aI933388849
aI113402418
aI17424947
aI301687349
aI24896055
aI16343608
aI16704057
aI14115387
aI75850301
aI245031486
aI64479811
aI191914567
aI18048439
aI46686796
aI1565261
aI44071693
aI73196112
aI18473554
aI757859
aI43803223
aI14901848
aI18768473
aI14541402
aI15032926
aI39248482
aI43213415
aI8273062
aI17087250
aI5739092
aI14475889
aI576174867
aI713333
aI17130106
aI255423
aI273080957
aI2488269589
aI567665280
aI15360643
aI65921668
aI69310513
aI30663302
aI3387351687
aI52028040
aI16114318
aI790637
aI20183832
aI31449746
aI76348185
aI1270637208
aI17982105
aI520459281
aI331408028
aI56681118
aI3307982960
aI6578852
aI19523014
aI12509862
aI2057621
aI112583337
aI25518762
aI3596971
aI215638702
aI331342512
aI14886344
aI961209014
aI18113993
aI70051392
aI1532601
aI15727391
aI716595900
aI427680446
aI415818433
aI17808093
aI475456195
aI587518070
aI18277063
aI1367663305
aI15590090
aI680653
aI7758542
aI3119178447
aI67723984
aI16322680
aI47932114
aI18703059
aI14148308
aI3171031
aI14312154
aI302179035
aI3731847973
aI2142731
aI30728929
aI3235513572
aI11461352
aI680683
aI20767469
aI1598191
aI22831857
aI14083539
aI16638708
aI13603962
aI11231752
aI816636666
aI1921151
aI141845244
aI12804862
aI17261311
aI15262464
aI14246657
aI465068802
aI14115587
aI39142953
aI741848884360536064
aI16147209
aI8413962
aI400024332
aI4252431
aI1904771
aI501801749
aI22078230
aI236496741
aI2269700892
aI18290367
aI40264478
aI381281055
aI17223242
aI15241350
aI227664679
aI1601135400
aI8315692
aI381739821
aI1311171374
aI44917551
aI44294961
aI11526962
aI229237555
aI284874176
aI16048951
aI780919608
aI28238650
aI481568223
aI6611772
aI14967616
aI870835010
aI15634571
aI138907788
aI128246602
aI14138167
aI23016053
aI14351160
aI57172819
aI16933716
aI9003862
aI844631
aI9397732
aI18735962
aI3367771
aI14845552
aI13919072
aI97018721
aI5530472
aS'DariusForoux'
p55
aI179626858
aI135505383
aI12477292
aI877421
aI21095279
aI236151665
aI10937202
aI18780307
aI78144374
aI55551465
aI520020858
aI14068788
aI210232192
aI218620803
aI122053508
aI64807817
aI24011660
aI17523597
aI14377870
aI34759567
aI19325840
aI21455761
aI38658962
aI24044436
aI600468277
aI27714455
aI192411414
aI14181273
aI15852442
aI18818543
aI249150277
aI8741792
aI124268562
aI2417571
aI17687460
aI14214053
aI6382502
aI1336231
aI2883707819
aI2432623532
aI545678253
aI226976689
aI12735602
aI18015731
aI8414132
aI60187574
aI17195959
aI833479608
aI956621754
aI11035582
aI75253
aI149119936
aI85807264
aI27878338
aI287683
aI104767916
aI175727560
aI52788044
aI1598411
aI14607308
aI1303501
aI194274255
aI16114640
aI164553682
aI376267732
aI165503959
aI26305496
aI2741101530
aI21567037
aI287713
aI17687524
aI17425383
aI504931836
aI615403
aI434299884
aI4194460655
aI197223412
aI299033589
aI22111223
aI18152276
aI14574586
aI14377979
aI537814014
aI334881792
aI812035
aI681473
aI40625160
aI106914825
aI15524875
aI2334937261
aI3107906577
aI14820867
aI14509080
aI1401881
aI15164442
aI40456367
aI4580381
aI37741601
aI798647330
aI14476328
aI5487452
aI14115884
aI58413
aI1945
aI89973810
aI14181427
aI734738247679500288
aI29156410
aI25663
aI15164481
aI1270851
aI8315972
aI22537286
aI16049223
aI7234632
aI600679948
aI12837962
aI15131723
aI2962357090
aI8971342
aI27321426
aI681043
aI163046484
aI307373582
aI84534359
aI156763
aI14247004
aI620061790
aI451535967
aI15098976
aI37938275
aI296150117
aI80864359
aI14574697
aI217605226
aI128345197
aI15787118
aI21161071
aI37053451
aI16835703
aI9495672
aI119318112
aI6398152
aI14465898
aI16737406
aI681493
aI14738561
aI113108098
aI246233963
aI21652614
aI8226802
aI9921672
aI142304393
aI27860681
aI171353623
aI6874252
aI877711
aI53175441
aI91283
aI2491573398
aI45409432
aI468603076
aI19688578
aI8119452
aI14214301
aI41903262
aI28009632
aI25763
aI7475972
aI18998438
aI8152232
aI310092084
aI54846637
aI113206446
aI25065207
aI220226736
aI1409967282
aI23903091
aI14247096
aI335832249
aI779451
aI7998842
aI784290
aI7562432
aI25793
aI436067719
aI21827788
aI15083550
aI114981751
aI2361741517
aI1387193552
aI110978262
aI257025239
aI70345946
aI26688378
aI13952222
aI14804195
aI1467621
aI186178202
aI13952232
aI15874940
aI915465450
aI15918317
aI152495342
aI29058287
aI10642672
aI15693493
aI14410994
aI52618483
aI8414452
aI1565941
aI3433721
aI40002812
aI28075562
aI1402111
aI4220161
aI1410601
aI726899622048735232
aI15492359
aI112649480
aI343742099
aI749593867
aI3111773452
aI22209805
aI18015504
aI20491193
aI16104323
aI12543252
aI4416791
aI1500441
aI14083355
aI100188425
aI216009700
aI15141153
aI589118341
aI23487777
aI55895330
aI108750115
aI31089956
aI137159973
aI615723
aI2412406063
aI16573745
aI446719282
aI14710387
aI17392948
aI21782915
aI161801527
aI6579512
aI71165241
aI29025595
aI9430332
aI17797344
aI10380612
aI23307830
aI204632560
aI14935367
aI631708002
aI2926189265
aI14116170
aI648523
aI380560718
aI15426896
aI20211026
aI2695901
aI19785044
aI14507438
aI17163609
aI2181293402
aI14968155
aI15629200
aI20178275
aI120186213
aI2853709372
aI23553388
aI136766830
aI196601199
aI7857522
aI681333
aI723067668
aI15787384
aI23618940
aI16224490
aI167011710
aI202368385
aI2161632642
aI45070535
aI33449350
aI19785281
aI16147850
aI2213346199
aI17524108
aI221144463
aI481025447
aI20211090
aI14116243
aI38462868
aI235573486
aI1579731
aI118613399
aI6186392
aI812441
aI5727642
aI25662949
aI30893470
aI779051858774065152
aI167798177
aI14312866
aI3630501
aI11822502
aI86369703
aI19129770
aI14640557
aI14247343
aI1166960048
aI1041841
aI1795511
aI27911608
aI89384377
aI567567802
aI80733631
aI17130945
aI18982475
aI15164870
aI19129801
aI7169482
aI369452491
aI1543333328
aI588539346
aI1109648851
aI2611406292
aI8513102
aI300803547
aI132572636
aI282322397
aI18553400
aI21718496
aI15705680
aI19615995
aI5629412
aI27017249
aI2586109416
aI182642155
aI1624368620
aI18310637
aI57927151
aI25388528
aI19497181
aI20178419
aI2482988532
aI14302121
aI565487188
aI9594362
aI812541
aS'nathanacurtis'
p56
aI33252863
aI16803328
aI24471041
aI178251266
aI222723
aI37905924
aI24864261
aI6841862
aI11789832
aI495347209
aI11331082
aI126510603
aI15716610
aI26830351
aI14771728
aI24765973
aI1450272278
aI12767492
aI494462492
aI14069199
aI104932955
aI14061830
aI385738278
aI7923242
aI18966061
aI3286621
aI39020080
aI17524273
aI14411316
aI56124985
aI9058342
aI14411325
aI274643893
aI10741312
aI24602177
aI7824962
aI22439491
aI5569462
aI26895943
aI14145056
aI21849675
aI743308478609907712
aI111579405
aI264463952
aI17071032
aI164488789
aI9463382
aI19872697
aI7890522
aI36712821
aI149317216
aI20964962
aI219833955
aI108786541
aI118258620
aI9135722
aI271177186
aI204498541
aI18081392
aI14182006
aI15591032
aI26233
aI59003
aI348644988
aI7906922
aI1964642581
aI25552514
aI86206084
aI15520022
aI14083718
aI943751
aI15066760
aI42559115
aI19512258
aI14804589
aI34694802
aI2244765331
aI17360533
aI869295769
aI3064948378
aI123266721
aI15263394
aI10695
aI648873
aI345980763
aI18212523
aI62787869
aI14377605
aI17360561
aI1960789190
aI66572574
aI263869952
aI14591604
aI2291689147
aI611739328
aI240685344
aI36857540
aI6547142
aI2153670343
aI18507464
aI30129100
aI1942349516
aI205809359
aI15460048
aI16377464
aI14542546
aI126307698
aI14345942
aI9332442
aI14345948
aI8496762
aI3312772830
aI623699679
aI2254561
aI11331302
aI619374314
aI14116588
aI812781
aI19556080
aI18507505
aI17426162
aI242575091
aI29255412
aI1468151
aI241985272
aI19490555
aI20637437
aI19359486
aI57386624
aI812804
aI16710614
aI727562360374747136
aI36071175
aI3827427083
aI3238356748
aI350840592
aI21817105
aI780050
aI24438551
aI15823641
aI16153562
aI50063134
aI1173281
aI878371
aI20244260
aI46524038
aI16191793
aI15771271
aI340813612
aI14424385
aI18016048
aI2568461
aI19064627
aI48348126
aI5924662
aI354103
aI166601166
aI103016249
aI3015796539
aI6514492
aI616253
aI3293603646
aI1491950233
aI714563
aI1648813892
aI15208758
aI17065799
aI18605897
aI14182218
aI1042251
aI15066958
aI366981749
aI29943632
aI3337054035
aI681813
aI317183515
aI6915372
aI301033304
aI58779482
aI79292253
aI15427422
aI13854562
aI1009511
aI14138343
aI208725869
aI235305264
aI40167282
aI3917145972
aI389681470
aI23226231
aI18482443
aI16967548
aI142337917
aI185034626
aI14121963
aI6219652
aI402941833
aI389310348
aI83519373
aI192625645
aI281405328
aI232350485
aI17655702
aI361228184
aI143583129
aI34252442
aI975497118
aI93841311
aI34192368
aI80361522
aI13494182
aI3420546983
aI19097512
aI5531562
aI14127431
aI35841964
aI2425153453
aI40495022
aI16967599
aI5957552
aI14673842
aI1337271
aI3034441657
aI612689850
aI8321842
aI1763261
aI1566661
aI2456905670
aI3237831
aI44099529
aI13821902
aI4188111
aI18638800
aI963531086
aI245491671
aI14837721
aI23095264
aI4031014883
aI35776485
aI2151409638
aI16902120
aI29222891
aI21981701
aI20985527
aI2462279665
aI9005042
aI281044980
aI2915330039
aI8611832
aI19272020
aI165537786
aI23291900
aI15039488
aI1412556804
aI100886534
aI21587975
aI22046728
aI763564
aI19785738
aI319023115
aI244181007
aI7694352
aI24007000
aI23095315
aI14411797
aI11069462
aI21948440
aI18889732
aI1157206524
aI117270558
aI14903327
aI3565601
aI17786914
aI2376034339
aI6773532
aI4417201
aI115359136
aI14116909
aI10151982
aI18112556
aI7727152
aI317253682
aI14116915
aI2848909364
aI65890357
aI16893764
aI705125805781684225
aI24111162
aI69986363
aI19130428
aI14870589
aI17950785
aI20113478
aI115304519
aI138799178
aI19244727
aI286746701
aI524778509
aI50751569
aI15198292
aI3139528789
aI15329368
aI9594972
aI759524865800019969
aI115396965
aI30468194
aI576546915
aI308996196
aI38757830
aI14805097
aI57151847
aI275736685
aI15901113
aI59503
aI2207404392
aI38654173
aI196934675
aI19949684
aI22243445
aI1130326134
aI22040937
aI5389332
aI10774652
aI3219744896
aI14411905
aI6613122
aI2430920839
aI166258824
aI5738612
aI76408975
aI3151849616
aI16246929
aI5761172
aI9048542
aI12986052
aI93284507
aI153905309
aI16672926
aI2902223007
aI7104672
aI2931714210
aI14212861
aI9660102
aI32696488
aI2719803561
aI20539563
aI121792684
aI14837934
aI34072751
aI45639860
aI14409265
aI16509110
aI97740985
aI4286651
aI182216893
aI2276638962
aI14248129
aI19753154
aI14641347
aI8874182
aI163113159
aI11856072
aI59593
aI19720395
aI76966092
aI247785677
aI14328513
aI610298067
aI10692302
aI14149846
aI17256825
aI12806362
aI21457115
aI15526110
aI15919327
aI19032289
aI28381563
aI12806372
aI2189541
aI618031334
aI17787116
aI38168813
aI14313712
aI16247026
aI14248179
aI306401662
aI15389102
aI9529592
aI125135097
aI24303315
aI964501
aI2951101482
aI14215424
aI130574593
aI25061637
aI753296289878581248
aI15132938
aI81783051
aI20048140
aI345762062
aI15886608
aI14280977
aI7661842
aI15110531
aI14313749
aI14084376
aI21937199
aI17787164
aI18212570
aI14608670
aI29878559
aI18152496
aI1187866916
aI14936359
aI3153520937
aI11659562
aI2321049899
aI113928492
aI777781
aI780590
aI68511453
aI50252892
aI29823368
aI9005362
aI1206581
aI442165559
aI34892089
aI18966843
aI17688892
aI27388221
aI57338175
aI242772288
aI3696961
aI157804866
aI30691578
aI9627972
aI1632581
aI1189601
aI228772684
aI17131849
aI20539722
aI46754123
aI2582861
aI16836943
aI14149971
aI4494
aI5663062
aI499099364
aI12937562
aS'kevinrose'
p57
aI451537245
aI32794974
aI47475039
aI511600998
aI16159121
aI6154602
aI4755024236
aI85846381
aI1714486333
aI95424915
aI423094645
aI19163510
aI494102905
aI15067515
aI4024701
aI8120702
aI14477695
aI14936448
aI7399812
aI594171416
aI43411847
aI616843
aI216951181
aI22538642
aI362178966
aI2156951
aI13298072
aI6482332
aI209316255
aI16705952
aS'Lovejessiecat'
p58
aI292153765
aI1315599343
aI15574600
aI182675886
aI29387184
aI4075984938
aI8841652
aI14084534
aI34356297
aI24701368
aI1356211956
aI4239681978
aI65671583
aI926443964
aI335800766
aI171338176
aI537586117
aI8481222
aI3107271
aI813512
aI18429029
aI156232138
aI22899150
aI39118584
aI5504562
aI11567972
aI17754586
aI682463
aI53340641
aI3398494691
aI1348121568
aI346548710
aI326057041
aI682473
aI130738666
aI20802027
aI17132014
aI25782767
aI17000944
aI20474356
aI57403893
aI7006712
aI53242361
aI531801855
aI47791189
aI9759232
aI3233475074
aI14248451
aI1010181
aI7236102
aI14379530
aI7825932
aI15297037
aI52718098
aI1291770157
aI19622422
aI185848725
aI15264281
aI100330011
aI77114340
aI78617337
aI17590815
aI8234572
aI387901985
aI3389844003
aI17721892
aI44755493
aI8448552
aI20605481
aI15663193
aI224815659
aI91187759
aI156527152
aI56992811
aI9103922
aI43412019
aI558164536
aI14117434
aI1242327612
aI86174269
aI5696062
aI18567605
aI207415872
aI19458626
aI27060803
aI813637
aI1017637447
aI14412362
aI711659959
aI64318031
aI20736593
aI15395410
aI382167635
aI25940409
aI22297700
aI617053
aI185214736
aI26525599
aI101542501
aI1068951313
aI5565032
aI31320681
aI87190123
aI7268972
aI336455442
aI2689067630
aI37907055
aI15383656
aI2240604787
aI191124342
aI14543479
aI16673400
aI302049915
aI15755900
aI552299133
aI42773
aI60033
aI14150274
aI17853061
aI36498054
aI2871984013
aI420493
aI144894609
aI14111171
aI245394068
aI14400622
aI41675415
aI16706201
aI1491234998
aS'amberwrencart'
p59
aI16018081
aI13396642
aI30337699
aI13265572
aI25619110
aI20441770
aI709063
aI617133
aI22964911
aI19037299
aI80964276
aI18705078
aI58462665
aI14117561
aI18967229
aI45443775
aI5728962
aI5958342
aI21359304
aI215378633
aI93547212
aI25525286
aI19086456
aI3066013475
aI432171732
aI649943
aI6089432
aI31648475
aI242793594
aI813790
aI1305311
aI19327712
aI18868961
aI14052066
aI44871453
aI134861265
aI18049768
aI21719789
aI2778655470
aI17820399
aI18836209
aI15231730
aI24472307
aI8055542
aI18017017
aI589864738
aI467102462
aI16979987
aI131296002
aI479816451
aI277211908
aI14805765
aI781184316223086592
aI271084296
aI12724012
aI26864395
aI112880396
aI14445325
aI21097230
aI32369426
aI1118681
aI17656600
aI2552064793
aI17787674
aI4925231
aI138308382
aI207612705
aI21916450
aI16509733
aI3140391
aI5575132
aI60203
aI2910939948
aI112782125
aI240315182
aI2209878493
aI2374921010
aI22079283
aI27159349
aI38005558
aI23739529
aI21930446
aI162818874
aI813889
aI8481602
aI47475525
aI15946209
aI2386761
aI66888279
aI4578
aI31051203
aI24374097
aI568617811
aI26372957
aI15395679
aI412535013
aI198179597
aI22997862
aI1003481959
aI14193127
aI85715824
aI22707348
aI355920763
aI130198324
aI6351742
aI15199103
aI103017346
aI28261526
aI22080391
aI10775432
aI617353
aI14347146
aI15526795
aI1093299085
aI14412686
aI240739127
aI14117779
aI11791252
aI6417302
aI917
aI5172121
aI617373
aI874277791
aI19458976
aI879521
aI17755042
aI1239971
aI30484294
aI2413041
aI6548392
aI96287858
aI9857962
aI35679148
aI14478260
aI384461750
aI781240
aI12250042
aI2725330079
aI17460156
aI43292595
aI2429316031
aI139652034
aI210794155
aI14379980
aI11758542
aI14969810
aI3337171
aI65694678
aI3238871
aI15738703
aI4602
aI15494110
aI14576609
aI7617702
aI14445542
aI334432287
aI15920105
aI574942186
aI25193452
aI781293
aI238676977
aI47065337
aI2911221
aI371092470
aI4090871
aI16205293
aI1764351
aI382823424
aI1912302594
aI1058667691
aI523299844
aI80079881
aI814090
aI14946818
aI14296920
aI110121475
aI16870421
aI1010711
aI32236177
aI38399009
aI15428642
aI1076261
aI814122
aI271445035
aI288892765
aI9759792
aI11267122
aI2030771
aI9497652
aI733194078
aI12512312
aI56032436
aI11922492
aI26176574
aI15363135
aI14985056
aI1530096708
aI2349198408
aI45582065
aI1396698186
aI440855627
aI14314572
aI134469154
aI15166546
aI17983838
aI1262840917
aI14249046
aI251423831
aI3032902744
aI48892314
aI255224923
aI169372764
aI15738725
aI275573857
aI863075515
aI23784548
aI25110374
aI102788198
aI67988583
aI16444522
aI76377195
aI25062513
aI31190131
aI73722997
aI14165865
aI675243
aI78933118
aI37284991
aI24338581
aI6352002
aI10316932
aI73985158
aI16379018
aI412970124
aI32205966
aI14380175
aI141094032
aI17165458
aI1076371
aI23129237
aI3044732055
aI62307524
aI14642331
aI430992540
aI19595339
aI297499845
aI277408746
aI350743715
aI13954212
aI3313167525
aI22834342
aI3089919144
aI17722537
aI814250
aI814253
aI8252602
aI9759932
aI16444606
aI1812341
aI1260091
aI289664194
aI17493187
aI274475788
aI1943648384
aI134442188
aI17657037
aI3786196093
aI8285392
aI19754193
aI12465982
aI104721619
aI211021012
aI21556437
aI540348180
aI17475449
aI43412697
aI14073039
aI112749788
aI899902687
aI814304
aI16280801
aI814307
aI15330537
aI814316
aI21130477
aI14839458
aI454814960
aI218393841
aI38391249
aI90140275
aI2456359466
aI14707966
aI123179694
aI16313600
aI9268482
aI11922692
aI402253364
aI17689864
aI16968969
aI14183691
aI15133964
aI21327117
aI14970127
aI3487821075
aI14478614
aI14216471
aI18214171
aI191098143
aI22506784
aI21228833
aI14937378
aI14150948
aI1502501
aI17755431
aI95055144
aI2551081
aI37973290
aI781613
aI144010545
aI22506802
aI21019870
aI30666040
aI14642495
aI1666149697
aI182086979
aI14806340
aI14839109
aI3279252806
aI8316812
aI42024162
aI49868110
aI14400739
aI101641556
aI1305941
aI17198424
aI21130587
aI16149852
aI32756282
aI120057182
aI2452831
aI8382352
aI619603
aI477818211
aI544501092
aI33353061
aI587099497
aI513174891
aI2801921388
aI1485936782
aI35876207
aI239168881
aI6417782
aI4579978615
aI16739704
aI7499132
aI1657191
aI225013119
aI13462912
aI19567168
aI374861186
aI19164547
aI121597316
aI3131665798
aI14806408
aI23022687
aI499230615
aI14282124
aI17544123
aI21949838
aI1670381
aI944467345
aI28142995
aI143977877
aI6541892
aI3953221
aI89583009
aI8613282
aI185789861
aI348777894
aI2063601
aI14256549
aI36400556
aI421195184
aI14183859
aI157969844
aI72281525
aI10907062
aI54717883
aI18574780
aI14052798
aI15101375
aI14282176
aI16477634
aI253586885
aI28323399
aI1593273806
aI1687818829
aI28863952
aI10353912
aI402947634
aI1020587478
aI19519071
aI19348730
aI13528542
aI24318544
aI12920742
aI115266129
aI9203182
aI16477679
aI12380072
aI172649970
aI15265271
aI16674297
aI18804218
aI23062442
aI16248319
aI21982720
aI14516241
aI403485680
aI7468632
aI1963403180
aI83275985
aI3510871
aI85323278
aI20966928
aI255290459
aI25357843
aI362583623
aI16969238
aI132673048
aI10222852
aI448562589
aI16216237
aI8646172
aI4117431
aI12480032
aI80979157
aI27553316
aI9465382
aI344157735
aI10022442
aI28203
aI2223571
aI453013039
aI1373105712
aI3763761
aI399535666
aI70505054
aI9891382
aI17886775
aI483520056
aI491136948
aI193719869
aI165067097
aI20082242
aI20704836
aI360148549
aI54455879
aI814667
aI28243
aI11693652
aI17100373
aI17526360
aI16543321
aI2964751
aI21950044
aI23293533
aI17854046
aI10415712
aI12086882
aI5238371
aI17854053
aI30010982
aI1315431
aI14085740
aI7590842
aI178868840
aI14712083
aI61120751
aI14216821
aI17952374
aI52129399
aI15363704
aI18247291
aI19787389
aI14085758
aI20016767
aI34369152
aI138826347
aI79097476
aI297102985
aI24251308
aI1689053928
aI14315150
aI22337466
aI17681614
aI93908625
aI15462034
aI20475542
aI1244441
aI201879196
aI814754
aI48361124
aI5828262
aI93482663
aI9957032
aI70479532
aI4760694445
aI5959342
aI16314033
aI1175221
aI20836022
aI285239241
aI52752059
aI107441853
aI34991806
aI2826828722
aI14413506
aI3031068356
aI14216902
aI36207905
aI2511072968
aI295333580
aI61133
aI30600911
aI13266642
aI834851
aI292941525
aI3367890647
aI234548952
aI14413529
aI2467791
aI25489119
aI6645712
aI581168866
aI57929443
aI6876902
aI1461940662
aI14446312
aI16838378
aI3895021
aI77000430
aI618223
aI57765619
aI716543
aI9982592
aI22723883
aI40464134
aI27062023
aI13332232
aI15318316
aI14872331
aI16208514
aI4767021
aI41971473
aI75230994
aI62800938
aI47509268
aI749333
aI322694936
aI259387161
aI15101722
aI13168412
aI552733
aI242511648
aI330857776
aI14872354
aI16099291
aI14511908
aI1863461
aI13127032
aI9367342
aI10205
aI150433584
aI2815881010
aI214502469
aI21622582
aI14930569
aS'vanschneider'
p60
aI75743
aI8941372
aI175952522
aI2669342527
aI15986497
aI130740034
aI14830733
aI206565190
aI252447857
aI13463372
aI17259353
aI83808909
aI2236185912
aI277180242
aI164425558
aI4517721
aI182821975
aI17264476
aI1470301
aI13594462
aI28513
aI379940706
aI219901798
aI278975121
aI17428328
aI7177312
aI80310122
aI15691631
aI257617776
aI19033970
aI4248211
aI165834612
aI175701310
aI20737911
aI164130681
aI35778426
aI8187772
aI2158461
aI63787669
aI53831659
aI14118793
aI749453
aI7991182
aI421144425
aI14996120
aI107442066
aI90029379
aI36623001
aI59535257
aI3401711
aI395079586
aI404405574
aI9531302
aI3328377579
aI6680492
aI23357426
aI2609086086
aI18247600
aI24145841
aI1154936755
aI2547412918
aI514305112
aI149541535
aI2425568586
aI763893
aI18739136
aI21295041
aI651203
aI12316612
aI288419784
aI315942903
aI2193616844
aI851882208
aI18313166
aI23654351
aI20148176
aI25703613
aI17854419
aI18083797
aI191883257
aI6472732
aI371044633
aI25325530
aI533884891
aI700715654
aI782302
aI1594021
aI13516112
aI361951203
aI2551781
aI30175206
aI3060836348
aI15495146
aI7830962
aI6909932
aI16334162
aI19132398
aI15626223
aI212357800
aI441806834
aI460451827
aI5795832
aI21786618
aI752743
aI703648264244097024
aI770336061771935745
aI11202562
aI14472613
aI44527626
aI4812811
aI17625100
aI311994370
aI14086158
aI75535021
aI155762008
aI19591186
aI15331347
aI15921173
aI16549034
aI2550228996
aI10776602
aI3302715419
aI189263900
aI38432797
aI7434272
aI14217249
aI233513165
aI14577701
aI4785
aI140341295
aI82505776
aI3665971
aI214184334
aI14348345
aI716863
aI1324445760
aI4515851
aI57234102
aI14217286
aI835579975
aI22248008
aI343797833
aI15495243
aI221278284
aI3764301
aI15331408
aI191295569
aI21459026
aI22573142
aI173109335
aI2413817946
aI232681564
aI274788446
aI618593
aI6221922
aI330002531
aI17199204
aI3502181
aI24244326
aI38989927
aI89321577
aI763719786
aI337801323
aI14381165
aI15528047
aI9728112
aI18644328
aI150639975
aI3374441
aI158527609
aI716923
aI348942463
aI290549888
aI132608129
aI281602070
aI19722375
aI14676108
aI50425997
aI815246
aI324726929
aI21065877
aI30863512
aI22507674
aI14250139
aI11104412
aI135196829
aI3318313118
aI11377082
aI6287522
aI241652422
aI782502
aI140898473
aI298381482
aI14381227
aI486344912
aI15102125
aI6247112
aI2658070706
aI265600371
aI3245142196
aI366702773
aI200278433
aI288846007
aI145773567
aI4387001
aI434368699
aI20607165
aI201020107
aI697542321315848192
aI58388677
aI135622854
aI15528137
aI330361451
aI28917111
aI14348492
aI17151344
aI380399826
aI782547
aI15855829
aI1107620054
aI3253629143
aI318697688
aI11792602
aI16642275
aI11792612
aI2244931813
aI782566
aI38269159
aI14840041
aI19329260
aI336457967
aI21203
aI8155382
aI1143031
aI19230968
aI14676217
aI15069435
aI43875619
aI253587709
aI36606677
aI13299972
aI824022
aI724169109693407232
aI2354249089
aI2506322185
aI345691738
aI19886347
aI55113687
aI3434541
aI224653586
aI2574914510
aI1872601
aI167276824
aI2460872994
aI2396891
aI39416100
aI23752997
aI16347430
aI946471
aI88797481
aI63533354
aI151613739
aI24342828
aI15593773
aI43577646
aI90992943
aI18365832
aI5501242
aI21426492
aI14352599
aI1099559232
aI16118082
aI2715971
aI3018584388
aI17068359
aI332501730
aI237518160
aI188576081
aI880981
aI109277526
aI14905688
aI15233369
aI48329050
aI1066463582
aI820736352
aI273477985
aI14184802
aI17492027
aI7336292
aI35025253
aI55523
aI14544426
aI17024985
aI22802797
aI13398382
aI1730621
aI168980848
aI17415571
aI815476
aI53993
aI9007482
aI27473030
aI234623722
aI365305860
aI600240512
aI782721
aI1307011
aI274821510
aI94204295
aI596636042
aI181344408
aI1352298896
aI14348689
aI136933779
aI633263
aI19001750
aI11792792
aI4744369825
aI3108355581
aI13824412
aI278163869
aI94400927
aI15692193
aI14283170
aI5507902
aI28144036
aI155677093
aI27455910
aI16347561
aI298480044
aI8057262
aI103925919
aI16478642
aI14315956
aI14873013
aI7860662
aI152021065
aI280261048
aI29028793
aI16282042
aI1110045116
aI112849341
aI5108161
aI14479810
aI188524619
aI22671813
aI515784097
aI1642131913
aI30100884
aI651723
aI56193484
aI6578302
aI1366028750
aI75853
aI1850110416
aI42889683
aI2159833556
aI2294687822
aI815577
aI1534031
aI18936284
aI65597918
aI570290656
aI4485601
aI1120104930
aI33747430
aI138635345
aI6443772
aI141423083
aI22737388
aI73396717
aI15528431
aI190312944
aI2400973298
aI17396212
aI2889749246
aI1151726070
aI1292857848
aI295924217
aI110334719
aI16694698
aI14840318
aI119236693
aI5796352
aI15815424
aI42889730
aI130249224
aI59503113
aI314405387
aI17781506
aI15170989
aI140145169
aI53801491
aI35484180
aI15826350
aI2423058966
aI17494551
aI95589124
aI239039002
aI14447132
aI4115427869
aI21131806
aI16192261
aI142340640
aI15430177
aI20574754
aI291363
aI19028099
aI11806812
aI11399722
aI627463
aI1471021
aI42136110
aI24277551
aI18117169
aI15233586
aI315527421
aI23163445
aI418837047
aI194736696
aI70873657
aI18006802
aI22803003
aI2478756618
aI782912
aI438301250
aI19165768
aI17855050
aI916648524
aI54653517
aI331382633
aI15334840
aI877490773
aI37712471
aI2312333412
aI1058173531
aI200012382
aI127583
aI19919458
aI150863291
aI45838949
aI74478182
aI14930705
aI480146026
aI14611051
aI7238252
aI7522
aI9597552
aI794227
aI98988660
aI1174008438
aI125033
aI815736
aI69071482
aI188019324
aI16085630
aI20116095
aI10023552
aI23261831
aI71168648
aI19788428
aI914061
aI14447248
aI1961825048
aI14414484
aI8300112
aI16144669
aI90796702
aI2360636064
aI21033634
aI133460644
aI496431784
aI480277161
aI305230506
aI1110701
aI14185136
aI4568835375
aI913142450
aI14086836
aI21983925
aI783032
aI27620026
aI299642754
aI20771519
aI24539840
aI1274561
aI140985386
aI3961541
aI300511943
aI11858632
aI14794188
aI15102669
aI12481232
aI1543828177
aI54159481
aI2575495897
aI2975134426
aI20738780
aI28603108
aI598766311
aI820418
aI283734762
aI37679854
aI33125103
aI1135261279
aI265482994
aI442449363
aI783092
aI14349045
aI2166715129
aI11039482
aI17887995
aI22835967
aI748987769158905856
aI299952256
aI16486011
aI14840581
aI723466179961053184
aI15856393
aI32699147
aI12841742
aI1241871
aI10665432
aI21328659
aI250049301
aI32210393
aI1736910980
aI2540794650
aI312996636
aI21852957
aI15823646
aI5436192
aI116060961
aI5796642
aI245265189
aI5698342
aI619303
aI78803753
aI144962346
aI1536811
aI8254252
aI3035034414
aI22573872
aI97669939
aI11662132
aI29493
aI19048585
aI16347964
aI948043232
aI14119746
aI220623683
aI14218053
aI147256135
aI1711895370
aI3040871
aI17101644
aI15725393
aI9892692
aI14807893
aI103895865
aI215839576
aI2330850138
aI344421211
aI13824862
aI5695632
aI2501590502
aI15397734
aI16118633
aI2735591
aI2246453394
aI22836078
aI3312710512
aI7077352
aI11694962
aI709081682
aI38474558
aI49967990
aI28341111
aI2918937464
aI11006842
aI216396668
aI59143038
aI15347729
aI18412421
aI412396869
aI154975724
aI15201162
aI366310287
aI172880784
aI2947183507
aI93713301
aI160639129
aI17814340
aI93165740
aI17855388
aI1155401
aI45617989
aI364147616
aI652193
aI22882459
aI47084453
aI19035047
aI15823784
aI17593258
aI111899565
aI14185390
aI17232815
aI158135219
aI48165815
aI24343480
aI16255551
aI16836767
aI88535998
aI22442943
aI17579092
aI22049729
aI14087106
aI15323979
aI2094021
aI14204227
aI16217035
aI10906832
aI236188622
aI732192574254006272
aI15875576
aI15496147
aI17888215
aI138644339
aI95810524
aI17134557
aI60945409
aI8700812
aI11009532
aI15692778
aI62443
aI371893033
aI417526766
aI687613
aI17964200
aI551315624
aI9532402
aI17212474
aI493482998
aI14480376
aI55571452
aI62977024
aI14152705
aI64844802
aI685063
aI155317256
aI4203434839
aI18510860
aI39049261
aI17101840
aI685073
aI2525581
aI2552851
aI5501972
aI10449942
aI6878232
aI816154
aI70513691
aI228786961
aI131830618
aI906261534
aI49148963
aI14677028
aI10965852
aI136213546
aI16612871
aI167048236
aI248149038
aI430412637
aI3771593776
aI39842866
aI7833122
aI14906420
aI39351350
aI264764937
aI14873656
aI2225211
aI231207997
aI7861312
aI20344020
aI61371461
aI14218310
aI42029921
aI13268042
aI816203
aI29773
aI46920783
aI24048722
aI30053219
aI125891671
aI138869116
aI1799261
aI18019422
aI18314337
aI538440802
aI16853179
aI1131911
aI69159937
aI1340521
aI2980443247
aI279802992
aI4884591729
aI19625074
aI17495155
aI78799133
aI54574612
aI18216058
aI6878332
aI14677117
aI123008127
aI5633152
aI2913411
aI15430788
aI17167494
aI28308616
aI69402135
aI17230018
aI3929231
aI19527590
aI7894162
aI3888048323
aI54424724
aI15332502
aI783511
aI52589720
aI42961420
aI14152860
aI439579805
aI5305502
aI29914272
aI128185505
aI43480226
aI57996454
aI34337962
aI1042631
aI7009452
aI3175601
aI746059796583940096
aI33846451
aI40069321
aI16741560
aI224465780
aI3011771
aI62653
aI24671422
aI520484031
aI52229312
aI17921219
aI10490742
aI22607047
aI5777612
aI5877822
aI14709964
aI849101
aI43804877
aI6017912
aI1944941779
aI58907835
aI1081294531
aI14717817
aI14111490
aI22541531
aI12448992
aI101577954
aI18060155
aI5534952
aI76084458
aI37975275
aI15103213
aI68655992
aI15856882
aI14906611
aI12776692
aI72021237
aI1316582646
aI1045751
aI11695352
aI18576633
aI371556974
aI2985716927
aI14841088
aI15922433
aI176649476
aI14120197
aI19821831
aI40301836
aI599356686
aI73200912
aI36350905
aI3101571
aI2279666964
aI245134614
aI934737175
aI26178841
aI17659162
aI253883675
aI178023234
aI794332936094875648
aS'mgsiegler'
p61
aI28865825
aI783650
aI337016099
aI18150856
aI14521737
aI14251304
aI5010731
aI5668402
aI20051248
aS'jasonfried'
p62
aI86773118
aI137721142
aI16348472
aI18380089
aI2734093626
aI783675
aI62783
aI18707777
aI43578692
aI20411717
aI7402822
aI1682431
aI5469512
aI95563
aI169098808
aI47707475
aI1273591124
aI14546264
aI30569817
aI35026266
aI19297631
aI12416352
aI290810203
aI783715
aI3044472165
aI557675881
aI18047201
aI353793389
aI573079101
aI14710129
aI8287602
aI421918067
aI220558708
aI15693174
aI67368314
aI23295355
aI272692606
aI21312954
aI291339840
aI8910212
aI14415237
aI14415239
aI4578175212
aI5446832
aI16315789
aI24540558
aI226703
aI260371856
aI619967890
aI816532
aI36631957
aI15242137
aI16872859
aI79820188
aI17986973
aI454456734
aI265614752
aI397637025
aI14120354
aI37680547
aI277869988
aI17593765
aI100136358
aI96040367
aI15431090
aI14611891
aI619705780
aI602919838
aI17626551
aI15332793
aI391968187
aI259290558
aI18937279
aI499774912
aI17462723
aI28571076
aI1308101
aI6092232
aI10384842
aI16144033
aI15693261
aI15431118
aI15384141
aI16705784
aI945124819
aI83162582
aI1275351
aI19068376
aI18544090
aI783837
aI333510110
aI253654495
aI427900496
aI7337442
aI14284261
aI14251494
aI214448436
aI21820904
aI97495292
aI22664103
aI50099694
aI356677104
aI333444599
aI2798679548
aI60880381
aI1588821
aI816640
aI826013185
aI10483202
aI26703365
aI475231751
aI16225196
aI19494411
aI7042572
aI3470861
aI14054926
aI36632080
aI86898197
aI45151766
aI298841623
aI15922713
aI145749531
aI11171362
aI14284323
aI2704894214
aI5502502
aI620073
aI11957802
aI13956652
aI14251565
aI5797422
aI63023
aI15791664
aI18052661
aI19461688
aI34633273
aI140473916
aI47806014
aI239136348
aI783937
aI26896651
aI14144438
aI4906907206
aI981121
aI15988298
aI5047
aI110458445
aI4685821518
aS'JeffGoins'
p63
aS'james_clear'
p64
aI56165838
aI23002724
aI115734106
aI15300187
aI19002973
aI32765534
aI53573221
aI8189542
aI862481
aI1555592808
aI10900412
aI16512620
aI90368402
aI15496816
aI1668721
aI9533042
aI2533651
aI14251636
aI2404415094
aI13235832
aI602011257
aI5437052
aI26484919
aI1152362773
aI218004434
aI6846082
aI1963651
aI432469637
aI548099009
aI784008
aI718473
aI16414347
aI12252812
aI5568142
aI15365775
aI14710416
aI14579345
aI310736530
aI26801811
aI397506197
aI4434201
aI291380750
aI2520731
aI52065949
aI15496862
aI38893218
aI19986085
aI19297961
aI36468395
aI816812
aI3028252336
aI7632562
aI19713521
aI4257461
aI3331192373
aI1501471
aI816830
aI79265397
aI813332160
aI159839938
aI3667651
aI512620228
aI14242442
aI1092613831
aI816841
aI25458378
aI35681996
aI545399768
aI784078
aI14710479
aI17725136
aI17494010
aI61306578
aI3284170452
aI8819662
aI14579415
aI1296296228
aI6321882
aI18020059
aI205289180
aI38026874
aI1512961758
aI1311438560
aI14415587
aI86963941
aI18609898
aI3926311
aI2855892716
aI16016621
aI68810485
aI314734326
aI193689335
aI56595412
aI10123002
aI15398651
aI612792060
aI108721917
aI7239422
aI1544360917
aI19628262
aI4647211
aI19724036
aI50231045
aI725078709028446208
aI15988487
aI45738284
aI145717003
aI13039372
aI8699522
aI14087951
aI15922962
aI9431342
aI73365270
aI19724055
aI46750483
aI44988185
aI5404442
aI16971549
aI14251806
aI14410479
aI143193892
aI14120741
aI1361737512
aI508557097
aI494466858
aI2587719469
aI15966431
aI20100723
aI23721781
aI15350994
aI1668921
aI816954
aS'KatieS'
p65
aI25950012
aI50394941
aI17823553
aI465401666
aI55375685
aI974765708
aI18511690
aI918026059
aI19756876
aI21082741
aI163936080
aI15071058
aI754087764
aI70317909
aI25438522
aI16334480
aI18642786
aI15100219
aI20051812
aI245177945
aI193629687
aI817000
aI17069929
aI9336682
aI20445035
aI15398764
aI22003346
aI32962415
aI14120816
aI14251890
aI14055283
aI18806648
aI15892116
aI381419720
aI40236925
aI147093
aI207353728
aI8825152
aI1570691
aI13367172
aI280590214
aI30439303
aI14088072
aI105150346
aI67092119
aI2226061
aI544634767
aI19593104
aI33453976
aI15955862
aI4649613208
aI79919001
aI20772763
aI22640541
aI6347032
aI14677919
aI46430112
aI613680355
aI17430435
aI1951102884
aI39384997
aI817062
aI137401329
aI18741160
aI8961692
aI773264371
aI30654110
aI28506038
aI194357577
aI9032692
aI817083
aI49543100
aI14972862
aI46528447
aI8535712
aI184161904
aI43644872
aI489662796
aI10778572
aI22199970
aI14723405
aI16414674
aI57440214
aI16119767
aI2446882778
aI16094099
aI136116192
aI369555425
aI37617731
aI861075427
aI3305895909
aI962394086
aI72185831
aI31815657
aI620523
aI17889260
aI16066898
aI5117
aI16645800
aI170686450
aI17459539
aI22529585
aI9861112
aI426145785
aI116226042
aI376961019
aI19593212
aI15329621
aI364059845
aI6944772
aI15788374
aI78102188
aI4782091
aI145127436
aI817166
aI99121168
aI20543509
aI2422470679
aI4266251
aI1684011037
aI546043939
aI16513061
aI410187814
aI43187889
aI22247464
aI14415916
aI41777199
aI37901320
aI21166130
aI20102835
aI95713333
aI44726326
aI21690425
aI360999263
aI23722045
aI28407870
aI15759423
aI14153794
aI14055491
aI3222041
aI143882311
aI105412681
aI17004618
aI246577227
aI1608992342
aI37222477
aI5732432
aI831719288
aI454129746
aI17856596
aI59177045
aI938801238
aI764260
aI389740634
aI10238702
aI65874277
aI12384352
aI14874721
aI2539681890
aI15005795
aI5568612
aI66025575
aI16021608
aI15056439
aI17627242
aI194443371
aI5568622
aI20674673
aI32831603
aI817268
aI15399031
aI21690488
aI452465684
aI1951301670
aI5175421
aI15693950
aI17070209
aI86788422
aI30570632
aI2337139052
aI16677004
aI3374020750
aI30863
aI269882231
aI403241108
aI34207893
aI24279192
aI30873
aI11204762
aI11073692
aI491000858
aI84408478
aI10647712
aI2654501025
aI15235235
aI15104164
aI7110832
aI846952621
aI572815534
aI285430813
aI25786544
aI18643124
aI15890619
aI784573
aI19331262
aI18828842
aI1300658372
aI171838740
aI19069127
aI2645653705
aI12482762
aI30923
aI264108236
aI42334413
aI137492689
aI62257368
aI16316634
aI28997852
aI17641330
aI3120396510
aI48855264
aI784609
aI14973154
aI817381
aI1431613878
aI5798122
aI72624466
aI363264237
aI238287090
aI16251124
aI46650115
aI15464697
aI1572829434
aI30973
aI9566462
aI14477054
aI717667235964329984
aI3166763274
aI15248516
aI419854605
aI12482832
aI350353681
aI31586578
aI41187603
aI65483021
aI17856793
aI14645531
aI243235100
aI223115549
aI302840096
aI9442352
aI195590434
aI183959259
aI8091942
aI223623
aI3176751
aI65698096
aI12220722
aI15989043
aI239630644
aI13893342
aI20654473
aI732199224
aI22872981
aI17856830
aI25622848
aI784707
aI5444662
aI784710
aI26376522
aI5766882
aI574323024
aI2792552786
aI23329110
aI52164952
aI2768568036
aI5831002
aI42469463
aI367924282
aI2488811
aI9566562
aI4269134907
aI114605798
aI4585831
aI784745
aI142950119
aI882108818
aI232225134
aI1112431
aI16447856
aI14449009
aI22509938
aI14252406
aI1362590071
aI17889656
aI35453305
aI9992572
aI11058922
aI18971006
aI11893122
aI15300995
aI262240644
aI981381
aI20572111
aI32183361
aI17000855
aI2796910988
aI9529752
aI15169938
aI21723539
aI1743571
aI1001060760
aI5077401
aI15366556
aI25033119
aI274233761
aI495286692
aI40532389
aI48724390
aI21604764
aI227342764
aI7667442
aI18282929
aI121600436
aI17660341
aI785185207
aI20347320
aI27261369
aI34732474
aI301365691
aI14154172
aI87849407
aI16054722
aI18446787
aI9697732
aI2424371654
aI3549601
aI427424201
aI16054731
aI32340428
aI18676177
aI14678484
aI872675798
aI114325981
aI15692520
aI1631398309
aI31203
aI10418662
aI19659239
aI23427560
aI12941802
aI16611819
aI111645778
aI36305390
aI8288752
aI15624616
aI2786851315
aI138476021
aI62290422
aI47282680
aI2799293525
aI6504192
aI752133
aI10451462
aI15858184
aI75332107
aI16579084
aI255082242
aI28342798
aI784912
aI23099922
aI891517460
aI20900270
aI46332443
aI3471901
aI115785477
aI12790192
aI16644642
aI351392859
aI36860088
aI714865190
aI22018600
aI17201709
aI507116078
aI15137329
aI18741813
aI22936120
aI245475764
aI108296764
aI1319632650
aI15839886
aI923793986
aI126351939
aI15854006
aI30177862
aI1538818580
aI17758792
aI14940745
aI7338892
aI104462925
aI309970788
aI63273552
aI215284305
aI104692306
aI19724884
aI243349236
aI273709654
aI1833561
aI9075292
aI436332986
aI7305822
aI66124383
aI457313
aI126614115
aI883301
aI221477478
aI10350412
aI14625212
aI5372522
aI3013231
aI624392816
aI107575921
aI14514804
aI67172981
aI82125107
aI45117090
aI16611962
aI2390651
aI179987314
aI17918491
aI202242689
aI4899175042
aI785027
aI47217284
aI785032
aI7076492
aI194663014
aI14776976
aI18741908
aI3340951
aI35617432
aI1899161
aI14121628
aI17496733
aI16874142
aI66939333
aI83567424
aI31586980
aI16841382
aI566196903
aI7535272
aI222886569
aI31403
aI10713772
aI4848301
aI17399581
aI2862255635
aI2902944200
aI5143221
aI84077001
aI922144531
aI17136315
aI213252796
aI14875325
aI2206759616
aI48813521
aI301643120
aI1696594628
aI3004234438
aI32701127
aI15497928
aI476019403
aI264436428
aI14744272
aI2985753298
aI14678740
aI21610878
aI6486742
aI5241
aI817880
aI200768218
aI82422223
aI9698012
aI16382685
aI847416307
aI16284386
aI2947811
aI67140324
aI81165031
aI42040040
aI44268265
aI16026475
aI785133
aI294648559
aI14187249
aI2235136754
aI3558800115
aI4553461
aI467140393
aI2464774904
aI245365497
aI18348795
aI350026492
aI15351594
aI98794242
aI17693443
aI14580485
aI3266673415
aI3799821
aI17627923
aI605453077
aI1976793878
aI11991832
aI31513
aI2244770588
aI98171679
aI17333024
aI408255265
aI43483
aI77239430
aI37387046
aI1530953521
aI148900525
aI536541995
aI1952250668
aI62487343
aI817970
aI10718
aI14680023
aI256005257
aI19193287
aI16546619
aI24738621
aI37732149
aI11402052
aI15792969
aI14711628
aI25197389
aI21494612
aI171212601
aI19430233
aI1945844953
aI702499846897463296
aI4724259676
aI787413853
aI15301470
aI15039329
aI6814562
aS'cdixon'
p66
aI11107172
aI246643561
aI16120684
aI24410989
aI15629171
aI9158462
aI14416759
aI180648825
aI686973
aI11812672
aI15104898
aI1728408043
aI40631172
aI6585222
aI10312232
aI1069820396
aI5503882
aI14973836
aI82017168
aI174554002
aI22444948
aI818071
aS'usabilitycounts'
p67
aI17922972
aI14416798
aI20479813
aI73366432
aI101989221
aI3799971
aI9075622
aI239893415
aI64420777
aI582848914
aI14252976
aI3730111043
aI18637556
aI240450486
aI47973
aI14875576
aI8088052
aI318330320
aI237271996
aI5045181
aI807435200
aI75496385
aI168786885
aI114019783
aI11926472
aI453984076
aI5578912
aI241662924
aI2609839949
aI9632722
aI15596499
aI11467732
aI14253014
aI96627193
aI251984857
aI22412250
aI2542140379
aI150895584
aI20249570
aI7011302
aI220938065
aI42793960
aI15203305
aI818155
aI16132605
aI9632752
aI154648125
aI17333238
aI536738807
aI7142392
aI14842873
aI14220283
aI3398466556
aI17431549
aI2254164492
aI16350207
aI24181760
aI916481
aI105305259
aI14515205
aI14056457
aI20249612
aI221838349
aI23460880
aI2226536280
aI687123
aI249887765
aI13368342
aI15006743
aI17267738
aI64543
aI166788129
aI2252938063
aI4258851
aI14543366
aI11861642
aI6361022
aI211647531
aI9468972
aI17595439
aI22641712
aI107740210
aI71203893
aI18775095
aI23854138
aI623003
aI197290506
aI322337854
aI38927424
aI2827222081
aI14974018
aI735807741755822080
aI9239622
aI18512967
aI10255432
aI494692876
aI84376652
aI77954126
aI14089297
aI396557395
aI143074585
aI38073
aI61592079
aI54965750
aI166007994
aI328532687
aS'joelgascoigne'
p68
aI22179370
aI12221542
aI20446311
aI50330729
aI1069246994
aI108330095
aI8208232
aI2948211
aI111416510
aI2030711
aI9895032
aI14318713
aI13139072
aI20249729
aI15400067
aI295369860
aI90548758
aI411958406
aI1145991
aI11550572
aI40107147
aI621713
aI15039634
aI859995284
aI235306133
aI3054101414
aI949401
aI14744734
aI351666032
aI207579675
aI818340
aI21200040
aI7998362
aI15301803
aI19987629
aI6519982
aI14777520
aI490673
aI15236275
aI403276191
aI140703377
aI15924411
aI12483772
aI8033482
aI14532443
aI42433733
aI5237281
aI575798472
aI64713
aI12745932
aI774675
aI29162709
aI17530072
aI654553
aI8667002
aI207355106
aI167215657
aI294354150
aI204242151
aI14679272
aI15111378
aI3380837615
aI9731312
aI233831665
aI716805331
aI3003410985
aI11500792
aI55246073
aI16579836
aI37846270
aI416644351
aI2248720256
aI319679019
aI17202436
aI3538181
aI25459974
aI425374754
aI949521
aI19463443
aI1556151572
aI27557141
aI207617302
aI17470681
aI15957273
aI86211866
aI785691
aI54852892
aI16153886
aI18016816
aI818466
aI86919397
aI6324102
aI167771431
aI16350505
aI21069098
aI6356272
aI14777649
aI8846642
aI462945587
aI3306159413
aI15138104
aI786681
aI43744572
aI14220606
aI14417215
aI547477215
aI7984352
aI982341
aI8453452
aI18273506
aI1068
aI289209680
aI15657528
aI3102571858
aI23500003
aI88708852
aI8944982
aI17202524
aI126169530
aI12090722
aI16612709
aI23756134
aI14843239
aI201391464
aI9677372
aI14908780
aI15826289
aI2235104629
aI14318967
aI380894587
aI264502655
aI216857985
aI12767662
aI18448279
aI17857933
aI11730322
aI69134915
aI7994772
aI43095278
aI17399192
aI918711
aI296451486
aI818591
aI851361
aI5438882
aI719093155
aI23887268
aI319531590
aI3200241
aI6532552
aI113540522
aI198142535
aI6828272
aI106200494
aI17333679
aI608435633
aI770318
aI277839283
aI24444344
aI1912110522
aI17842079
aI2463749365
aI12025282
aI14903883
aI1113541
aI84245958
aI18972104
aI3044769225
aI14351818
aI133594571
aI14453090
aS'hankgreen'
p69
aI7798232
aI20348377
aI47327823
aI25230813
aI110591455
aI2458844640
aI15730804
aI38567396
aI486968060
aI18546150
aI18775527
aI15223870
aI34700777
aI909802987
aI39484910
aI16219635
aI11206132
aI108559862
aI46677929
aI16186872
aI59320916
aI71630332
aI1479376381
aI76373
aI77331971
aI59833863
aI1244681
aI14941706
aI9644632
aI191266327
aI252870169
aI15662622
aI15062277
aI2129441
aI22478376
aI17409082
aI28671535
aI106626610
aI2981431
aI29130296
aI17399353
aI60741940
aI785980
aI30801469
aI17019333
aI7863872
aI629793
aI20021667
aI1026620996
aI8126022
aI14985825
aI127139400
aI16547405
aI473202255
aI24239440
aI114851409
aI334003794
aI24051283
aI113071374
aI474391898
aI14515799
aI82247256
aI53837402
aI16219742
aI297533025
aI4423611
aI5996132
aI29425256
aI427556459
aI11730542
aI225640047
aI15728242
aI16186995
aI608411933
aI833420917
aI382458751
aI46273722
aI11435642
aI9698942
aI16678527
aI2178481795
aI17363140
aI14646917
aI92798598
aI262274696
aI14810761
aI495517322
aI256573068
aI7931412
aI4750991
aI26443408
aI2326161
aI26511175
aI378863252
aI11894422
aI344063639
aI5865112
aI240254617
aI201948826
aI14122652
aI6477082
aI2956754800
aI133594783
aI13106852
aI17825445
aI1223524008
aI65193
aI27262634
aI6880942
aI16875183
aI11337392
aI7159752
aI45645493
aI29982392
aI2227142329
aI687803
aI2883261
aI171219029
aI14220991
aI15597251
aI38469318
aI917191
aI43646666
aI1239671
aI43003608
aI21888718
aI86114000
aI65233
aI15498964
aI818902
aI268435160
aI14515931
aI228785886
aI397098960
aI11095692
aI203718372
aI1769191
aI98926312
aI18710249
aI8683242
aI237764331
aI598386634
aI15204082
aI940736467
aI2479193844
aI3669751
aI15007480
aI19103481
aI733118202
aI21785215
aI24739580
aI14060427
aI47349506
aI150476075
aS'warpling'
p70
aI15400710
aI28278535
aI41025288
aI23396106
aI15269643
aI324581151
aI264470292
aI13604142
aI3920658198
aI65303
aI17891097
aI1474331
aI9010972
aI936247069
aI260800287
aI932544288
aI25722657
aI16351010
aI136294141
aI6192932
aI12116992
aI10190632
aI2195241
aI3052633899
aI14516013
aI3227582256
aI2263220017
aI18743091
aI86736696
aI70680377
aI16809786
aI69369659
aI11009852
aI540912266
aI19267390
aI731512639
aI9436992
aI33004679
aI192610117
aI2424241994
aI18186060
aI22904653
aI2814279503
aI2499510096
aI14483283
aI16687721
aI15040349
aI10911582
aI819040
aI14516067
aI53772132
aI21431618
aI14581607
aI1933161
aI2621291
aS'umairh'
p71
aI35651440
aI8781682
aI9961332
aI92143477
aI16941033
aI597524344
aI121536379
aI14024572
aI180595349
aI91313398
aI76611461
aI13860742
aI18003642
aI21987210
aI15662988
aI32653
aI279642001
aI1152843668
aI15667533
aI42794903
aI14319517
aI413400991
aI98828192
aI17541787
aI15826853
aI21528489
aI16318378
aI19070892
aI1553154854
aI9737242
aI159946057
aI29294520
aI15892410
aI3236932255
aI32346340
aI27000767
aI359104448
aI177012673
aI10780612
aI15826886
aI71264929
aI146210761
aI138444747
aI520060880
aI3019177937
aI17792979
aI12353492
aI222494678
aI449839063
aI17137628
aI15433693
aI192577503
aI31326176
aI25559011
aI12451812
aI18115238
aI16482279
aI47906792
aI138772457
aI14581738
aI245137389
aI18481134
aI15187965
aI16056306
aI1364754420
aI14974965
aI13893622
aI108090708
aI70025211
aI14417916
aI55410687
atp72
Rp73
.